

HI-TECH Software PIC18 LITE Macro Assembler V9.80 build 11162 
                                                                                               Sun Sep 29 19:40:26 2013

HI-TECH Software Omniscient Code Generator (Lite mode) build 11162
     1  0000                     opt subtitle "HI-TECH Software Omniscient Code Generator (Lite mode) build 11162"
     2                           
     3                           opt pagewidth 120
     4                           
     5                           	opt lm
     6                           
     7                           	processor	18F452
     8  0000                     porta	equ	0F80h
     9  0000                     portb	equ	0F81h
    10  0000                     portc	equ	0F82h
    11  0000                     portd	equ	0F83h
    12  0000                     porte	equ	0F84h
    13  0000                     lata	equ	0F89h
    14  0000                     latb	equ	0F8Ah
    15  0000                     latc	equ	0F8Bh
    16  0000                     latd	equ	0F8Ch
    17  0000                     late	equ	0F8Dh
    18  0000                     trisa	equ	0F92h
    19  0000                     trisb	equ	0F93h
    20  0000                     trisc	equ	0F94h
    21  0000                     trisd	equ	0F95h
    22  0000                     trise	equ	0F96h
    23  0000                     pie1	equ	0F9Dh
    24  0000                     pir1	equ	0F9Eh
    25  0000                     ipr1	equ	0F9Fh
    26  0000                     pie2	equ	0FA0h
    27  0000                     pir2	equ	0FA1h
    28  0000                     ipr2	equ	0FA2h
    29  0000                     t3con	equ	0FB1h
    30  0000                     tmr3l	equ	0FB2h
    31  0000                     tmr3h	equ	0FB3h
    32  0000                     ccp1con	equ	0FBDh
    33  0000                     ccpr1l	equ	0FBEh
    34  0000                     ccpr1h	equ	0FBFh
    35  0000                     adcon1	equ	0FC1h
    36  0000                     adcon0	equ	0FC2h
    37  0000                     adresl	equ	0FC3h
    38  0000                     adresh	equ	0FC4h
    39  0000                     sspcon2	equ	0FC5h
    40  0000                     sspcon1	equ	0FC6h
    41  0000                     sspstat	equ	0FC7h
    42  0000                     sspadd	equ	0FC8h
    43  0000                     sspbuf	equ	0FC9h
    44  0000                     t2con	equ	0FCAh
    45  0000                     pr2	equ	0FCBh
    46  0000                     tmr2	equ	0FCCh
    47  0000                     t1con	equ	0FCDh
    48  0000                     tmr1l	equ	0FCEh
    49  0000                     tmr1h	equ	0FCFh
    50  0000                     rcon	equ	0FD0h
    51  0000                     wdtcon	equ	0FD1h
    52  0000                     lvdcon	equ	0FD2h
    53  0000                     osccon	equ	0FD3h
    54  0000                     t0con	equ	0FD5h
    55  0000                     tmr0l	equ	0FD6h
    56  0000                     tmr0h	equ	0FD7h
    57  0000                     status	equ	0FD8h
    58  0000                     fsr2	equ	0FD9h
    59  0000                     fsr2l	equ	0FD9h
    60  0000                     fsr2h	equ	0FDAh
    61  0000                     plusw2	equ	0FDBh
    62  0000                     preinc2	equ	0FDCh
    63  0000                     postdec2	equ	0FDDh
    64  0000                     postinc2	equ	0FDEh
    65  0000                     indf2	equ	0FDFh
    66  0000                     bsr	equ	0FE0h
    67  0000                     fsr1	equ	0FE1h
    68  0000                     fsr1l	equ	0FE1h
    69  0000                     fsr1h	equ	0FE2h
    70  0000                     plusw1	equ	0FE3h
    71  0000                     preinc1	equ	0FE4h
    72  0000                     postdec1	equ	0FE5h
    73  0000                     postinc1	equ	0FE6h
    74  0000                     indf1	equ	0FE7h
    75  0000                     wreg	equ	0FE8h
    76  0000                     fsr0	equ	0FE9h
    77  0000                     fsr0l	equ	0FE9h
    78  0000                     fsr0h	equ	0FEAh
    79  0000                     plusw0	equ	0FEBh
    80  0000                     preinc0	equ	0FECh
    81  0000                     postdec0	equ	0FEDh
    82  0000                     postinc0	equ	0FEEh
    83  0000                     indf0	equ	0FEFh
    84  0000                     intcon3	equ	0FF0h
    85  0000                     intcon2	equ	0FF1h
    86  0000                     intcon	equ	0FF2h
    87  0000                     prod	equ	0FF3h
    88  0000                     prodl	equ	0FF3h
    89  0000                     prodh	equ	0FF4h
    90  0000                     tablat	equ	0FF5h
    91  0000                     tblptr	equ	0FF6h
    92  0000                     tblptrl	equ	0FF6h
    93  0000                     tblptrh	equ	0FF7h
    94  0000                     tblptru	equ	0FF8h
    95  0000                     pcl	equ	0FF9h
    96  0000                     pclat	equ	0FFAh
    97  0000                     pclath	equ	0FFAh
    98  0000                     pclatu	equ	0FFBh
    99  0000                     stkptr	equ	0FFCh
   100  0000                     tosl	equ	0FFDh
   101  0000                     tosh	equ	0FFEh
   102  0000                     tosu	equ	0FFFh
   103                           skipnz macro
   104                           	btfsc	status,2
   105  0000                     	endm
   106                           	global	__ramtop
   107                           	global	__accesstop
   108                           # 19 "C:\Program Files\HI-TECH Software\PICC-18\9.80\include\pic18f452.h"
   109  0000                     PORTA equ 0F80h ;# 
   110                           # 72 "C:\Program Files\HI-TECH Software\PICC-18\9.80\include\pic18f452.h"
   111  0000                     PORTB equ 0F81h ;# 
   112                           # 112 "C:\Program Files\HI-TECH Software\PICC-18\9.80\include\pic18f452.h"
   113  0000                     PORTC equ 0F82h ;# 
   114                           # 162 "C:\Program Files\HI-TECH Software\PICC-18\9.80\include\pic18f452.h"
   115  0000                     PORTD equ 0F83h ;# 
   116                           # 198 "C:\Program Files\HI-TECH Software\PICC-18\9.80\include\pic18f452.h"
   117  0000                     PORTE equ 0F84h ;# 
   118                           # 307 "C:\Program Files\HI-TECH Software\PICC-18\9.80\include\pic18f452.h"
   119  0000                     LATA equ 0F89h ;# 
   120                           # 363 "C:\Program Files\HI-TECH Software\PICC-18\9.80\include\pic18f452.h"
   121  0000                     LATB equ 0F8Ah ;# 
   122                           # 416 "C:\Program Files\HI-TECH Software\PICC-18\9.80\include\pic18f452.h"
   123  0000                     LATC equ 0F8Bh ;# 
   124                           # 469 "C:\Program Files\HI-TECH Software\PICC-18\9.80\include\pic18f452.h"
   125  0000                     LATD equ 0F8Ch ;# 
   126                           # 522 "C:\Program Files\HI-TECH Software\PICC-18\9.80\include\pic18f452.h"
   127  0000                     LATE equ 0F8Dh ;# 
   128                           # 570 "C:\Program Files\HI-TECH Software\PICC-18\9.80\include\pic18f452.h"
   129  0000                     TRISA equ 0F92h ;# 
   130                           # 575 "C:\Program Files\HI-TECH Software\PICC-18\9.80\include\pic18f452.h"
   131  0000                     DDRA equ 0F92h ;# 
   132                           # 629 "C:\Program Files\HI-TECH Software\PICC-18\9.80\include\pic18f452.h"
   133  0000                     TRISB equ 0F93h ;# 
   134                           # 634 "C:\Program Files\HI-TECH Software\PICC-18\9.80\include\pic18f452.h"
   135  0000                     DDRB equ 0F93h ;# 
   136                           # 700 "C:\Program Files\HI-TECH Software\PICC-18\9.80\include\pic18f452.h"
   137  0000                     TRISC equ 0F94h ;# 
   138                           # 705 "C:\Program Files\HI-TECH Software\PICC-18\9.80\include\pic18f452.h"
   139  0000                     DDRC equ 0F94h ;# 
   140                           # 771 "C:\Program Files\HI-TECH Software\PICC-18\9.80\include\pic18f452.h"
   141  0000                     TRISD equ 0F95h ;# 
   142                           # 776 "C:\Program Files\HI-TECH Software\PICC-18\9.80\include\pic18f452.h"
   143  0000                     DDRD equ 0F95h ;# 
   144                           # 834 "C:\Program Files\HI-TECH Software\PICC-18\9.80\include\pic18f452.h"
   145  0000                     TRISE equ 0F96h ;# 
   146                           # 839 "C:\Program Files\HI-TECH Software\PICC-18\9.80\include\pic18f452.h"
   147  0000                     DDRE equ 0F96h ;# 
   148                           # 887 "C:\Program Files\HI-TECH Software\PICC-18\9.80\include\pic18f452.h"
   149  0000                     PIE1 equ 0F9Dh ;# 
   150                           # 914 "C:\Program Files\HI-TECH Software\PICC-18\9.80\include\pic18f452.h"
   151  0000                     PIR1 equ 0F9Eh ;# 
   152                           # 950 "C:\Program Files\HI-TECH Software\PICC-18\9.80\include\pic18f452.h"
   153  0000                     IPR1 equ 0F9Fh ;# 
   154                           # 977 "C:\Program Files\HI-TECH Software\PICC-18\9.80\include\pic18f452.h"
   155  0000                     PIE2 equ 0FA0h ;# 
   156                           # 993 "C:\Program Files\HI-TECH Software\PICC-18\9.80\include\pic18f452.h"
   157  0000                     PIR2 equ 0FA1h ;# 
   158                           # 1009 "C:\Program Files\HI-TECH Software\PICC-18\9.80\include\pic18f452.h"
   159  0000                     IPR2 equ 0FA2h ;# 
   160                           # 1025 "C:\Program Files\HI-TECH Software\PICC-18\9.80\include\pic18f452.h"
   161  0000                     EECON1 equ 0FA6h ;# 
   162                           # 1048 "C:\Program Files\HI-TECH Software\PICC-18\9.80\include\pic18f452.h"
   163  0000                     EECON2 equ 0FA7h ;# 
   164                           # 1060 "C:\Program Files\HI-TECH Software\PICC-18\9.80\include\pic18f452.h"
   165  0000                     EEDATA equ 0FA8h ;# 
   166                           # 1072 "C:\Program Files\HI-TECH Software\PICC-18\9.80\include\pic18f452.h"
   167  0000                     EEADR equ 0FA9h ;# 
   168                           # 1084 "C:\Program Files\HI-TECH Software\PICC-18\9.80\include\pic18f452.h"
   169  0000                     RCSTA equ 0FABh ;# 
   170                           # 1089 "C:\Program Files\HI-TECH Software\PICC-18\9.80\include\pic18f452.h"
   171  0000                     RCSTA1 equ 0FABh ;# 
   172                           # 1163 "C:\Program Files\HI-TECH Software\PICC-18\9.80\include\pic18f452.h"
   173  0000                     TXSTA equ 0FACh ;# 
   174                           # 1168 "C:\Program Files\HI-TECH Software\PICC-18\9.80\include\pic18f452.h"
   175  0000                     TXSTA1 equ 0FACh ;# 
   176                           # 1280 "C:\Program Files\HI-TECH Software\PICC-18\9.80\include\pic18f452.h"
   177  0000                     TXREG equ 0FADh ;# 
   178                           # 1285 "C:\Program Files\HI-TECH Software\PICC-18\9.80\include\pic18f452.h"
   179  0000                     TXREG1 equ 0FADh ;# 
   180                           # 1303 "C:\Program Files\HI-TECH Software\PICC-18\9.80\include\pic18f452.h"
   181  0000                     RCREG equ 0FAEh ;# 
   182                           # 1308 "C:\Program Files\HI-TECH Software\PICC-18\9.80\include\pic18f452.h"
   183  0000                     RCREG1 equ 0FAEh ;# 
   184                           # 1326 "C:\Program Files\HI-TECH Software\PICC-18\9.80\include\pic18f452.h"
   185  0000                     SPBRG equ 0FAFh ;# 
   186                           # 1331 "C:\Program Files\HI-TECH Software\PICC-18\9.80\include\pic18f452.h"
   187  0000                     SPBRG1 equ 0FAFh ;# 
   188                           # 1349 "C:\Program Files\HI-TECH Software\PICC-18\9.80\include\pic18f452.h"
   189  0000                     T3CON equ 0FB1h ;# 
   190                           # 1394 "C:\Program Files\HI-TECH Software\PICC-18\9.80\include\pic18f452.h"
   191  0000                     TMR3 equ 0FB2h ;# 
   192                           # 1406 "C:\Program Files\HI-TECH Software\PICC-18\9.80\include\pic18f452.h"
   193  0000                     TMR3L equ 0FB2h ;# 
   194                           # 1418 "C:\Program Files\HI-TECH Software\PICC-18\9.80\include\pic18f452.h"
   195  0000                     TMR3H equ 0FB3h ;# 
   196                           # 1430 "C:\Program Files\HI-TECH Software\PICC-18\9.80\include\pic18f452.h"
   197  0000                     CCP2CON equ 0FBAh ;# 
   198                           # 1460 "C:\Program Files\HI-TECH Software\PICC-18\9.80\include\pic18f452.h"
   199  0000                     CCPR2 equ 0FBBh ;# 
   200                           # 1472 "C:\Program Files\HI-TECH Software\PICC-18\9.80\include\pic18f452.h"
   201  0000                     CCPR2L equ 0FBBh ;# 
   202                           # 1484 "C:\Program Files\HI-TECH Software\PICC-18\9.80\include\pic18f452.h"
   203  0000                     CCPR2H equ 0FBCh ;# 
   204                           # 1496 "C:\Program Files\HI-TECH Software\PICC-18\9.80\include\pic18f452.h"
   205  0000                     CCP1CON equ 0FBDh ;# 
   206                           # 1522 "C:\Program Files\HI-TECH Software\PICC-18\9.80\include\pic18f452.h"
   207  0000                     CCPR1 equ 0FBEh ;# 
   208                           # 1534 "C:\Program Files\HI-TECH Software\PICC-18\9.80\include\pic18f452.h"
   209  0000                     CCPR1L equ 0FBEh ;# 
   210                           # 1546 "C:\Program Files\HI-TECH Software\PICC-18\9.80\include\pic18f452.h"
   211  0000                     CCPR1H equ 0FBFh ;# 
   212                           # 1558 "C:\Program Files\HI-TECH Software\PICC-18\9.80\include\pic18f452.h"
   213  0000                     ADCON1 equ 0FC1h ;# 
   214                           # 1583 "C:\Program Files\HI-TECH Software\PICC-18\9.80\include\pic18f452.h"
   215  0000                     ADCON0 equ 0FC2h ;# 
   216                           # 1647 "C:\Program Files\HI-TECH Software\PICC-18\9.80\include\pic18f452.h"
   217  0000                     ADRES equ 0FC3h ;# 
   218                           # 1659 "C:\Program Files\HI-TECH Software\PICC-18\9.80\include\pic18f452.h"
   219  0000                     ADRESL equ 0FC3h ;# 
   220                           # 1671 "C:\Program Files\HI-TECH Software\PICC-18\9.80\include\pic18f452.h"
   221  0000                     ADRESH equ 0FC4h ;# 
   222                           # 1683 "C:\Program Files\HI-TECH Software\PICC-18\9.80\include\pic18f452.h"
   223  0000                     SSPCON2 equ 0FC5h ;# 
   224                           # 1702 "C:\Program Files\HI-TECH Software\PICC-18\9.80\include\pic18f452.h"
   225  0000                     SSPCON1 equ 0FC6h ;# 
   226                           # 1724 "C:\Program Files\HI-TECH Software\PICC-18\9.80\include\pic18f452.h"
   227  0000                     SSPSTAT equ 0FC7h ;# 
   228                           # 1842 "C:\Program Files\HI-TECH Software\PICC-18\9.80\include\pic18f452.h"
   229  0000                     SSPADD equ 0FC8h ;# 
   230                           # 1854 "C:\Program Files\HI-TECH Software\PICC-18\9.80\include\pic18f452.h"
   231  0000                     SSPBUF equ 0FC9h ;# 
   232                           # 1866 "C:\Program Files\HI-TECH Software\PICC-18\9.80\include\pic18f452.h"
   233  0000                     T2CON equ 0FCAh ;# 
   234                           # 1889 "C:\Program Files\HI-TECH Software\PICC-18\9.80\include\pic18f452.h"
   235  0000                     PR2 equ 0FCBh ;# 
   236                           # 1894 "C:\Program Files\HI-TECH Software\PICC-18\9.80\include\pic18f452.h"
   237  0000                     MEMCON equ 0FCBh ;# 
   238                           # 1912 "C:\Program Files\HI-TECH Software\PICC-18\9.80\include\pic18f452.h"
   239  0000                     TMR2 equ 0FCCh ;# 
   240                           # 1924 "C:\Program Files\HI-TECH Software\PICC-18\9.80\include\pic18f452.h"
   241  0000                     T1CON equ 0FCDh ;# 
   242                           # 1965 "C:\Program Files\HI-TECH Software\PICC-18\9.80\include\pic18f452.h"
   243  0000                     TMR1 equ 0FCEh ;# 
   244                           # 1977 "C:\Program Files\HI-TECH Software\PICC-18\9.80\include\pic18f452.h"
   245  0000                     TMR1L equ 0FCEh ;# 
   246                           # 1989 "C:\Program Files\HI-TECH Software\PICC-18\9.80\include\pic18f452.h"
   247  0000                     TMR1H equ 0FCFh ;# 
   248                           # 2001 "C:\Program Files\HI-TECH Software\PICC-18\9.80\include\pic18f452.h"
   249  0000                     RCON equ 0FD0h ;# 
   250                           # 2051 "C:\Program Files\HI-TECH Software\PICC-18\9.80\include\pic18f452.h"
   251  0000                     WDTCON equ 0FD1h ;# 
   252                           # 2066 "C:\Program Files\HI-TECH Software\PICC-18\9.80\include\pic18f452.h"
   253  0000                     LVDCON equ 0FD2h ;# 
   254                           # 2086 "C:\Program Files\HI-TECH Software\PICC-18\9.80\include\pic18f452.h"
   255  0000                     OSCCON equ 0FD3h ;# 
   256                           # 2098 "C:\Program Files\HI-TECH Software\PICC-18\9.80\include\pic18f452.h"
   257  0000                     T0CON equ 0FD5h ;# 
   258                           # 2120 "C:\Program Files\HI-TECH Software\PICC-18\9.80\include\pic18f452.h"
   259  0000                     TMR0 equ 0FD6h ;# 
   260                           # 2132 "C:\Program Files\HI-TECH Software\PICC-18\9.80\include\pic18f452.h"
   261  0000                     TMR0L equ 0FD6h ;# 
   262                           # 2144 "C:\Program Files\HI-TECH Software\PICC-18\9.80\include\pic18f452.h"
   263  0000                     TMR0H equ 0FD7h ;# 
   264                           # 2156 "C:\Program Files\HI-TECH Software\PICC-18\9.80\include\pic18f452.h"
   265  0000                     STATUS equ 0FD8h ;# 
   266                           # 2187 "C:\Program Files\HI-TECH Software\PICC-18\9.80\include\pic18f452.h"
   267  0000                     FSR2 equ 0FD9h ;# 
   268                           # 2199 "C:\Program Files\HI-TECH Software\PICC-18\9.80\include\pic18f452.h"
   269  0000                     FSR2L equ 0FD9h ;# 
   270                           # 2211 "C:\Program Files\HI-TECH Software\PICC-18\9.80\include\pic18f452.h"
   271  0000                     FSR2H equ 0FDAh ;# 
   272                           # 2223 "C:\Program Files\HI-TECH Software\PICC-18\9.80\include\pic18f452.h"
   273  0000                     PLUSW2 equ 0FDBh ;# 
   274                           # 2235 "C:\Program Files\HI-TECH Software\PICC-18\9.80\include\pic18f452.h"
   275  0000                     PREINC2 equ 0FDCh ;# 
   276                           # 2247 "C:\Program Files\HI-TECH Software\PICC-18\9.80\include\pic18f452.h"
   277  0000                     POSTDEC2 equ 0FDDh ;# 
   278                           # 2259 "C:\Program Files\HI-TECH Software\PICC-18\9.80\include\pic18f452.h"
   279  0000                     POSTINC2 equ 0FDEh ;# 
   280                           # 2271 "C:\Program Files\HI-TECH Software\PICC-18\9.80\include\pic18f452.h"
   281  0000                     INDF2 equ 0FDFh ;# 
   282                           # 2283 "C:\Program Files\HI-TECH Software\PICC-18\9.80\include\pic18f452.h"
   283  0000                     BSR equ 0FE0h ;# 
   284                           # 2295 "C:\Program Files\HI-TECH Software\PICC-18\9.80\include\pic18f452.h"
   285  0000                     FSR1 equ 0FE1h ;# 
   286                           # 2307 "C:\Program Files\HI-TECH Software\PICC-18\9.80\include\pic18f452.h"
   287  0000                     FSR1L equ 0FE1h ;# 
   288                           # 2319 "C:\Program Files\HI-TECH Software\PICC-18\9.80\include\pic18f452.h"
   289  0000                     FSR1H equ 0FE2h ;# 
   290                           # 2331 "C:\Program Files\HI-TECH Software\PICC-18\9.80\include\pic18f452.h"
   291  0000                     PLUSW1 equ 0FE3h ;# 
   292                           # 2343 "C:\Program Files\HI-TECH Software\PICC-18\9.80\include\pic18f452.h"
   293  0000                     PREINC1 equ 0FE4h ;# 
   294                           # 2355 "C:\Program Files\HI-TECH Software\PICC-18\9.80\include\pic18f452.h"
   295  0000                     POSTDEC1 equ 0FE5h ;# 
   296                           # 2367 "C:\Program Files\HI-TECH Software\PICC-18\9.80\include\pic18f452.h"
   297  0000                     POSTINC1 equ 0FE6h ;# 
   298                           # 2379 "C:\Program Files\HI-TECH Software\PICC-18\9.80\include\pic18f452.h"
   299  0000                     INDF1 equ 0FE7h ;# 
   300                           # 2391 "C:\Program Files\HI-TECH Software\PICC-18\9.80\include\pic18f452.h"
   301  0000                     WREG equ 0FE8h ;# 
   302                           # 2414 "C:\Program Files\HI-TECH Software\PICC-18\9.80\include\pic18f452.h"
   303  0000                     FSR0 equ 0FE9h ;# 
   304                           # 2426 "C:\Program Files\HI-TECH Software\PICC-18\9.80\include\pic18f452.h"
   305  0000                     FSR0L equ 0FE9h ;# 
   306                           # 2438 "C:\Program Files\HI-TECH Software\PICC-18\9.80\include\pic18f452.h"
   307  0000                     FSR0H equ 0FEAh ;# 
   308                           # 2450 "C:\Program Files\HI-TECH Software\PICC-18\9.80\include\pic18f452.h"
   309  0000                     PLUSW0 equ 0FEBh ;# 
   310                           # 2462 "C:\Program Files\HI-TECH Software\PICC-18\9.80\include\pic18f452.h"
   311  0000                     PREINC0 equ 0FECh ;# 
   312                           # 2474 "C:\Program Files\HI-TECH Software\PICC-18\9.80\include\pic18f452.h"
   313  0000                     POSTDEC0 equ 0FEDh ;# 
   314                           # 2486 "C:\Program Files\HI-TECH Software\PICC-18\9.80\include\pic18f452.h"
   315  0000                     POSTINC0 equ 0FEEh ;# 
   316                           # 2498 "C:\Program Files\HI-TECH Software\PICC-18\9.80\include\pic18f452.h"
   317  0000                     INDF0 equ 0FEFh ;# 
   318                           # 2510 "C:\Program Files\HI-TECH Software\PICC-18\9.80\include\pic18f452.h"
   319  0000                     INTCON3 equ 0FF0h ;# 
   320                           # 2539 "C:\Program Files\HI-TECH Software\PICC-18\9.80\include\pic18f452.h"
   321  0000                     INTCON2 equ 0FF1h ;# 
   322                           # 2568 "C:\Program Files\HI-TECH Software\PICC-18\9.80\include\pic18f452.h"
   323  0000                     INTCON equ 0FF2h ;# 
   324                           # 2573 "C:\Program Files\HI-TECH Software\PICC-18\9.80\include\pic18f452.h"
   325  0000                     INTCON1 equ 0FF2h ;# 
   326                           # 2695 "C:\Program Files\HI-TECH Software\PICC-18\9.80\include\pic18f452.h"
   327  0000                     PROD equ 0FF3h ;# 
   328                           # 2707 "C:\Program Files\HI-TECH Software\PICC-18\9.80\include\pic18f452.h"
   329  0000                     PRODL equ 0FF3h ;# 
   330                           # 2719 "C:\Program Files\HI-TECH Software\PICC-18\9.80\include\pic18f452.h"
   331  0000                     PRODH equ 0FF4h ;# 
   332                           # 2731 "C:\Program Files\HI-TECH Software\PICC-18\9.80\include\pic18f452.h"
   333  0000                     TABLAT equ 0FF5h ;# 
   334                           # 2743 "C:\Program Files\HI-TECH Software\PICC-18\9.80\include\pic18f452.h"
   335  0000                     TBLPTR equ 0FF6h ;# 
   336                           # 2756 "C:\Program Files\HI-TECH Software\PICC-18\9.80\include\pic18f452.h"
   337  0000                     TBLPTRL equ 0FF6h ;# 
   338                           # 2768 "C:\Program Files\HI-TECH Software\PICC-18\9.80\include\pic18f452.h"
   339  0000                     TBLPTRH equ 0FF7h ;# 
   340                           # 2780 "C:\Program Files\HI-TECH Software\PICC-18\9.80\include\pic18f452.h"
   341  0000                     TBLPTRU equ 0FF8h ;# 
   342                           # 2793 "C:\Program Files\HI-TECH Software\PICC-18\9.80\include\pic18f452.h"
   343  0000                     PCLAT equ 0FF9h ;# 
   344                           # 2798 "C:\Program Files\HI-TECH Software\PICC-18\9.80\include\pic18f452.h"
   345  0000                     PC equ 0FF9h ;# 
   346                           # 2816 "C:\Program Files\HI-TECH Software\PICC-18\9.80\include\pic18f452.h"
   347  0000                     PCL equ 0FF9h ;# 
   348                           # 2828 "C:\Program Files\HI-TECH Software\PICC-18\9.80\include\pic18f452.h"
   349  0000                     PCLATH equ 0FFAh ;# 
   350                           # 2840 "C:\Program Files\HI-TECH Software\PICC-18\9.80\include\pic18f452.h"
   351  0000                     PCLATU equ 0FFBh ;# 
   352                           # 2852 "C:\Program Files\HI-TECH Software\PICC-18\9.80\include\pic18f452.h"
   353  0000                     STKPTR equ 0FFCh ;# 
   354                           # 2883 "C:\Program Files\HI-TECH Software\PICC-18\9.80\include\pic18f452.h"
   355  0000                     TOS equ 0FFDh ;# 
   356                           # 2895 "C:\Program Files\HI-TECH Software\PICC-18\9.80\include\pic18f452.h"
   357  0000                     TOSL equ 0FFDh ;# 
   358                           # 2907 "C:\Program Files\HI-TECH Software\PICC-18\9.80\include\pic18f452.h"
   359  0000                     TOSH equ 0FFEh ;# 
   360                           # 2919 "C:\Program Files\HI-TECH Software\PICC-18\9.80\include\pic18f452.h"
   361  0000                     TOSU equ 0FFFh ;# 
   362                           # 19 "C:\Program Files\HI-TECH Software\PICC-18\9.80\include\pic18f452.h"
   363  0000                     PORTA equ 0F80h ;# 
   364                           # 72 "C:\Program Files\HI-TECH Software\PICC-18\9.80\include\pic18f452.h"
   365  0000                     PORTB equ 0F81h ;# 
   366                           # 112 "C:\Program Files\HI-TECH Software\PICC-18\9.80\include\pic18f452.h"
   367  0000                     PORTC equ 0F82h ;# 
   368                           # 162 "C:\Program Files\HI-TECH Software\PICC-18\9.80\include\pic18f452.h"
   369  0000                     PORTD equ 0F83h ;# 
   370                           # 198 "C:\Program Files\HI-TECH Software\PICC-18\9.80\include\pic18f452.h"
   371  0000                     PORTE equ 0F84h ;# 
   372                           # 307 "C:\Program Files\HI-TECH Software\PICC-18\9.80\include\pic18f452.h"
   373  0000                     LATA equ 0F89h ;# 
   374                           # 363 "C:\Program Files\HI-TECH Software\PICC-18\9.80\include\pic18f452.h"
   375  0000                     LATB equ 0F8Ah ;# 
   376                           # 416 "C:\Program Files\HI-TECH Software\PICC-18\9.80\include\pic18f452.h"
   377  0000                     LATC equ 0F8Bh ;# 
   378                           # 469 "C:\Program Files\HI-TECH Software\PICC-18\9.80\include\pic18f452.h"
   379  0000                     LATD equ 0F8Ch ;# 
   380                           # 522 "C:\Program Files\HI-TECH Software\PICC-18\9.80\include\pic18f452.h"
   381  0000                     LATE equ 0F8Dh ;# 
   382                           # 570 "C:\Program Files\HI-TECH Software\PICC-18\9.80\include\pic18f452.h"
   383  0000                     TRISA equ 0F92h ;# 
   384                           # 575 "C:\Program Files\HI-TECH Software\PICC-18\9.80\include\pic18f452.h"
   385  0000                     DDRA equ 0F92h ;# 
   386                           # 629 "C:\Program Files\HI-TECH Software\PICC-18\9.80\include\pic18f452.h"
   387  0000                     TRISB equ 0F93h ;# 
   388                           # 634 "C:\Program Files\HI-TECH Software\PICC-18\9.80\include\pic18f452.h"
   389  0000                     DDRB equ 0F93h ;# 
   390                           # 700 "C:\Program Files\HI-TECH Software\PICC-18\9.80\include\pic18f452.h"
   391  0000                     TRISC equ 0F94h ;# 
   392                           # 705 "C:\Program Files\HI-TECH Software\PICC-18\9.80\include\pic18f452.h"
   393  0000                     DDRC equ 0F94h ;# 
   394                           # 771 "C:\Program Files\HI-TECH Software\PICC-18\9.80\include\pic18f452.h"
   395  0000                     TRISD equ 0F95h ;# 
   396                           # 776 "C:\Program Files\HI-TECH Software\PICC-18\9.80\include\pic18f452.h"
   397  0000                     DDRD equ 0F95h ;# 
   398                           # 834 "C:\Program Files\HI-TECH Software\PICC-18\9.80\include\pic18f452.h"
   399  0000                     TRISE equ 0F96h ;# 
   400                           # 839 "C:\Program Files\HI-TECH Software\PICC-18\9.80\include\pic18f452.h"
   401  0000                     DDRE equ 0F96h ;# 
   402                           # 887 "C:\Program Files\HI-TECH Software\PICC-18\9.80\include\pic18f452.h"
   403  0000                     PIE1 equ 0F9Dh ;# 
   404                           # 914 "C:\Program Files\HI-TECH Software\PICC-18\9.80\include\pic18f452.h"
   405  0000                     PIR1 equ 0F9Eh ;# 
   406                           # 950 "C:\Program Files\HI-TECH Software\PICC-18\9.80\include\pic18f452.h"
   407  0000                     IPR1 equ 0F9Fh ;# 
   408                           # 977 "C:\Program Files\HI-TECH Software\PICC-18\9.80\include\pic18f452.h"
   409  0000                     PIE2 equ 0FA0h ;# 
   410                           # 993 "C:\Program Files\HI-TECH Software\PICC-18\9.80\include\pic18f452.h"
   411  0000                     PIR2 equ 0FA1h ;# 
   412                           # 1009 "C:\Program Files\HI-TECH Software\PICC-18\9.80\include\pic18f452.h"
   413  0000                     IPR2 equ 0FA2h ;# 
   414                           # 1025 "C:\Program Files\HI-TECH Software\PICC-18\9.80\include\pic18f452.h"
   415  0000                     EECON1 equ 0FA6h ;# 
   416                           # 1048 "C:\Program Files\HI-TECH Software\PICC-18\9.80\include\pic18f452.h"
   417  0000                     EECON2 equ 0FA7h ;# 
   418                           # 1060 "C:\Program Files\HI-TECH Software\PICC-18\9.80\include\pic18f452.h"
   419  0000                     EEDATA equ 0FA8h ;# 
   420                           # 1072 "C:\Program Files\HI-TECH Software\PICC-18\9.80\include\pic18f452.h"
   421  0000                     EEADR equ 0FA9h ;# 
   422                           # 1084 "C:\Program Files\HI-TECH Software\PICC-18\9.80\include\pic18f452.h"
   423  0000                     RCSTA equ 0FABh ;# 
   424                           # 1089 "C:\Program Files\HI-TECH Software\PICC-18\9.80\include\pic18f452.h"
   425  0000                     RCSTA1 equ 0FABh ;# 
   426                           # 1163 "C:\Program Files\HI-TECH Software\PICC-18\9.80\include\pic18f452.h"
   427  0000                     TXSTA equ 0FACh ;# 
   428                           # 1168 "C:\Program Files\HI-TECH Software\PICC-18\9.80\include\pic18f452.h"
   429  0000                     TXSTA1 equ 0FACh ;# 
   430                           # 1280 "C:\Program Files\HI-TECH Software\PICC-18\9.80\include\pic18f452.h"
   431  0000                     TXREG equ 0FADh ;# 
   432                           # 1285 "C:\Program Files\HI-TECH Software\PICC-18\9.80\include\pic18f452.h"
   433  0000                     TXREG1 equ 0FADh ;# 
   434                           # 1303 "C:\Program Files\HI-TECH Software\PICC-18\9.80\include\pic18f452.h"
   435  0000                     RCREG equ 0FAEh ;# 
   436                           # 1308 "C:\Program Files\HI-TECH Software\PICC-18\9.80\include\pic18f452.h"
   437  0000                     RCREG1 equ 0FAEh ;# 
   438                           # 1326 "C:\Program Files\HI-TECH Software\PICC-18\9.80\include\pic18f452.h"
   439  0000                     SPBRG equ 0FAFh ;# 
   440                           # 1331 "C:\Program Files\HI-TECH Software\PICC-18\9.80\include\pic18f452.h"
   441  0000                     SPBRG1 equ 0FAFh ;# 
   442                           # 1349 "C:\Program Files\HI-TECH Software\PICC-18\9.80\include\pic18f452.h"
   443  0000                     T3CON equ 0FB1h ;# 
   444                           # 1394 "C:\Program Files\HI-TECH Software\PICC-18\9.80\include\pic18f452.h"
   445  0000                     TMR3 equ 0FB2h ;# 
   446                           # 1406 "C:\Program Files\HI-TECH Software\PICC-18\9.80\include\pic18f452.h"
   447  0000                     TMR3L equ 0FB2h ;# 
   448                           # 1418 "C:\Program Files\HI-TECH Software\PICC-18\9.80\include\pic18f452.h"
   449  0000                     TMR3H equ 0FB3h ;# 
   450                           # 1430 "C:\Program Files\HI-TECH Software\PICC-18\9.80\include\pic18f452.h"
   451  0000                     CCP2CON equ 0FBAh ;# 
   452                           # 1460 "C:\Program Files\HI-TECH Software\PICC-18\9.80\include\pic18f452.h"
   453  0000                     CCPR2 equ 0FBBh ;# 
   454                           # 1472 "C:\Program Files\HI-TECH Software\PICC-18\9.80\include\pic18f452.h"
   455  0000                     CCPR2L equ 0FBBh ;# 
   456                           # 1484 "C:\Program Files\HI-TECH Software\PICC-18\9.80\include\pic18f452.h"
   457  0000                     CCPR2H equ 0FBCh ;# 
   458                           # 1496 "C:\Program Files\HI-TECH Software\PICC-18\9.80\include\pic18f452.h"
   459  0000                     CCP1CON equ 0FBDh ;# 
   460                           # 1522 "C:\Program Files\HI-TECH Software\PICC-18\9.80\include\pic18f452.h"
   461  0000                     CCPR1 equ 0FBEh ;# 
   462                           # 1534 "C:\Program Files\HI-TECH Software\PICC-18\9.80\include\pic18f452.h"
   463  0000                     CCPR1L equ 0FBEh ;# 
   464                           # 1546 "C:\Program Files\HI-TECH Software\PICC-18\9.80\include\pic18f452.h"
   465  0000                     CCPR1H equ 0FBFh ;# 
   466                           # 1558 "C:\Program Files\HI-TECH Software\PICC-18\9.80\include\pic18f452.h"
   467  0000                     ADCON1 equ 0FC1h ;# 
   468                           # 1583 "C:\Program Files\HI-TECH Software\PICC-18\9.80\include\pic18f452.h"
   469  0000                     ADCON0 equ 0FC2h ;# 
   470                           # 1647 "C:\Program Files\HI-TECH Software\PICC-18\9.80\include\pic18f452.h"
   471  0000                     ADRES equ 0FC3h ;# 
   472                           # 1659 "C:\Program Files\HI-TECH Software\PICC-18\9.80\include\pic18f452.h"
   473  0000                     ADRESL equ 0FC3h ;# 
   474                           # 1671 "C:\Program Files\HI-TECH Software\PICC-18\9.80\include\pic18f452.h"
   475  0000                     ADRESH equ 0FC4h ;# 
   476                           # 1683 "C:\Program Files\HI-TECH Software\PICC-18\9.80\include\pic18f452.h"
   477  0000                     SSPCON2 equ 0FC5h ;# 
   478                           # 1702 "C:\Program Files\HI-TECH Software\PICC-18\9.80\include\pic18f452.h"
   479  0000                     SSPCON1 equ 0FC6h ;# 
   480                           # 1724 "C:\Program Files\HI-TECH Software\PICC-18\9.80\include\pic18f452.h"
   481  0000                     SSPSTAT equ 0FC7h ;# 
   482                           # 1842 "C:\Program Files\HI-TECH Software\PICC-18\9.80\include\pic18f452.h"
   483  0000                     SSPADD equ 0FC8h ;# 
   484                           # 1854 "C:\Program Files\HI-TECH Software\PICC-18\9.80\include\pic18f452.h"
   485  0000                     SSPBUF equ 0FC9h ;# 
   486                           # 1866 "C:\Program Files\HI-TECH Software\PICC-18\9.80\include\pic18f452.h"
   487  0000                     T2CON equ 0FCAh ;# 
   488                           # 1889 "C:\Program Files\HI-TECH Software\PICC-18\9.80\include\pic18f452.h"
   489  0000                     PR2 equ 0FCBh ;# 
   490                           # 1894 "C:\Program Files\HI-TECH Software\PICC-18\9.80\include\pic18f452.h"
   491  0000                     MEMCON equ 0FCBh ;# 
   492                           # 1912 "C:\Program Files\HI-TECH Software\PICC-18\9.80\include\pic18f452.h"
   493  0000                     TMR2 equ 0FCCh ;# 
   494                           # 1924 "C:\Program Files\HI-TECH Software\PICC-18\9.80\include\pic18f452.h"
   495  0000                     T1CON equ 0FCDh ;# 
   496                           # 1965 "C:\Program Files\HI-TECH Software\PICC-18\9.80\include\pic18f452.h"
   497  0000                     TMR1 equ 0FCEh ;# 
   498                           # 1977 "C:\Program Files\HI-TECH Software\PICC-18\9.80\include\pic18f452.h"
   499  0000                     TMR1L equ 0FCEh ;# 
   500                           # 1989 "C:\Program Files\HI-TECH Software\PICC-18\9.80\include\pic18f452.h"
   501  0000                     TMR1H equ 0FCFh ;# 
   502                           # 2001 "C:\Program Files\HI-TECH Software\PICC-18\9.80\include\pic18f452.h"
   503  0000                     RCON equ 0FD0h ;# 
   504                           # 2051 "C:\Program Files\HI-TECH Software\PICC-18\9.80\include\pic18f452.h"
   505  0000                     WDTCON equ 0FD1h ;# 
   506                           # 2066 "C:\Program Files\HI-TECH Software\PICC-18\9.80\include\pic18f452.h"
   507  0000                     LVDCON equ 0FD2h ;# 
   508                           # 2086 "C:\Program Files\HI-TECH Software\PICC-18\9.80\include\pic18f452.h"
   509  0000                     OSCCON equ 0FD3h ;# 
   510                           # 2098 "C:\Program Files\HI-TECH Software\PICC-18\9.80\include\pic18f452.h"
   511  0000                     T0CON equ 0FD5h ;# 
   512                           # 2120 "C:\Program Files\HI-TECH Software\PICC-18\9.80\include\pic18f452.h"
   513  0000                     TMR0 equ 0FD6h ;# 
   514                           # 2132 "C:\Program Files\HI-TECH Software\PICC-18\9.80\include\pic18f452.h"
   515  0000                     TMR0L equ 0FD6h ;# 
   516                           # 2144 "C:\Program Files\HI-TECH Software\PICC-18\9.80\include\pic18f452.h"
   517  0000                     TMR0H equ 0FD7h ;# 
   518                           # 2156 "C:\Program Files\HI-TECH Software\PICC-18\9.80\include\pic18f452.h"
   519  0000                     STATUS equ 0FD8h ;# 
   520                           # 2187 "C:\Program Files\HI-TECH Software\PICC-18\9.80\include\pic18f452.h"
   521  0000                     FSR2 equ 0FD9h ;# 
   522                           # 2199 "C:\Program Files\HI-TECH Software\PICC-18\9.80\include\pic18f452.h"
   523  0000                     FSR2L equ 0FD9h ;# 
   524                           # 2211 "C:\Program Files\HI-TECH Software\PICC-18\9.80\include\pic18f452.h"
   525  0000                     FSR2H equ 0FDAh ;# 
   526                           # 2223 "C:\Program Files\HI-TECH Software\PICC-18\9.80\include\pic18f452.h"
   527  0000                     PLUSW2 equ 0FDBh ;# 
   528                           # 2235 "C:\Program Files\HI-TECH Software\PICC-18\9.80\include\pic18f452.h"
   529  0000                     PREINC2 equ 0FDCh ;# 
   530                           # 2247 "C:\Program Files\HI-TECH Software\PICC-18\9.80\include\pic18f452.h"
   531  0000                     POSTDEC2 equ 0FDDh ;# 
   532                           # 2259 "C:\Program Files\HI-TECH Software\PICC-18\9.80\include\pic18f452.h"
   533  0000                     POSTINC2 equ 0FDEh ;# 
   534                           # 2271 "C:\Program Files\HI-TECH Software\PICC-18\9.80\include\pic18f452.h"
   535  0000                     INDF2 equ 0FDFh ;# 
   536                           # 2283 "C:\Program Files\HI-TECH Software\PICC-18\9.80\include\pic18f452.h"
   537  0000                     BSR equ 0FE0h ;# 
   538                           # 2295 "C:\Program Files\HI-TECH Software\PICC-18\9.80\include\pic18f452.h"
   539  0000                     FSR1 equ 0FE1h ;# 
   540                           # 2307 "C:\Program Files\HI-TECH Software\PICC-18\9.80\include\pic18f452.h"
   541  0000                     FSR1L equ 0FE1h ;# 
   542                           # 2319 "C:\Program Files\HI-TECH Software\PICC-18\9.80\include\pic18f452.h"
   543  0000                     FSR1H equ 0FE2h ;# 
   544                           # 2331 "C:\Program Files\HI-TECH Software\PICC-18\9.80\include\pic18f452.h"
   545  0000                     PLUSW1 equ 0FE3h ;# 
   546                           # 2343 "C:\Program Files\HI-TECH Software\PICC-18\9.80\include\pic18f452.h"
   547  0000                     PREINC1 equ 0FE4h ;# 
   548                           # 2355 "C:\Program Files\HI-TECH Software\PICC-18\9.80\include\pic18f452.h"
   549  0000                     POSTDEC1 equ 0FE5h ;# 
   550                           # 2367 "C:\Program Files\HI-TECH Software\PICC-18\9.80\include\pic18f452.h"
   551  0000                     POSTINC1 equ 0FE6h ;# 
   552                           # 2379 "C:\Program Files\HI-TECH Software\PICC-18\9.80\include\pic18f452.h"
   553  0000                     INDF1 equ 0FE7h ;# 
   554                           # 2391 "C:\Program Files\HI-TECH Software\PICC-18\9.80\include\pic18f452.h"
   555  0000                     WREG equ 0FE8h ;# 
   556                           # 2414 "C:\Program Files\HI-TECH Software\PICC-18\9.80\include\pic18f452.h"
   557  0000                     FSR0 equ 0FE9h ;# 
   558                           # 2426 "C:\Program Files\HI-TECH Software\PICC-18\9.80\include\pic18f452.h"
   559  0000                     FSR0L equ 0FE9h ;# 
   560                           # 2438 "C:\Program Files\HI-TECH Software\PICC-18\9.80\include\pic18f452.h"
   561  0000                     FSR0H equ 0FEAh ;# 
   562                           # 2450 "C:\Program Files\HI-TECH Software\PICC-18\9.80\include\pic18f452.h"
   563  0000                     PLUSW0 equ 0FEBh ;# 
   564                           # 2462 "C:\Program Files\HI-TECH Software\PICC-18\9.80\include\pic18f452.h"
   565  0000                     PREINC0 equ 0FECh ;# 
   566                           # 2474 "C:\Program Files\HI-TECH Software\PICC-18\9.80\include\pic18f452.h"
   567  0000                     POSTDEC0 equ 0FEDh ;# 
   568                           # 2486 "C:\Program Files\HI-TECH Software\PICC-18\9.80\include\pic18f452.h"
   569  0000                     POSTINC0 equ 0FEEh ;# 
   570                           # 2498 "C:\Program Files\HI-TECH Software\PICC-18\9.80\include\pic18f452.h"
   571  0000                     INDF0 equ 0FEFh ;# 
   572                           # 2510 "C:\Program Files\HI-TECH Software\PICC-18\9.80\include\pic18f452.h"
   573  0000                     INTCON3 equ 0FF0h ;# 
   574                           # 2539 "C:\Program Files\HI-TECH Software\PICC-18\9.80\include\pic18f452.h"
   575  0000                     INTCON2 equ 0FF1h ;# 
   576                           # 2568 "C:\Program Files\HI-TECH Software\PICC-18\9.80\include\pic18f452.h"
   577  0000                     INTCON equ 0FF2h ;# 
   578                           # 2573 "C:\Program Files\HI-TECH Software\PICC-18\9.80\include\pic18f452.h"
   579  0000                     INTCON1 equ 0FF2h ;# 
   580                           # 2695 "C:\Program Files\HI-TECH Software\PICC-18\9.80\include\pic18f452.h"
   581  0000                     PROD equ 0FF3h ;# 
   582                           # 2707 "C:\Program Files\HI-TECH Software\PICC-18\9.80\include\pic18f452.h"
   583  0000                     PRODL equ 0FF3h ;# 
   584                           # 2719 "C:\Program Files\HI-TECH Software\PICC-18\9.80\include\pic18f452.h"
   585  0000                     PRODH equ 0FF4h ;# 
   586                           # 2731 "C:\Program Files\HI-TECH Software\PICC-18\9.80\include\pic18f452.h"
   587  0000                     TABLAT equ 0FF5h ;# 
   588                           # 2743 "C:\Program Files\HI-TECH Software\PICC-18\9.80\include\pic18f452.h"
   589  0000                     TBLPTR equ 0FF6h ;# 
   590                           # 2756 "C:\Program Files\HI-TECH Software\PICC-18\9.80\include\pic18f452.h"
   591  0000                     TBLPTRL equ 0FF6h ;# 
   592                           # 2768 "C:\Program Files\HI-TECH Software\PICC-18\9.80\include\pic18f452.h"
   593  0000                     TBLPTRH equ 0FF7h ;# 
   594                           # 2780 "C:\Program Files\HI-TECH Software\PICC-18\9.80\include\pic18f452.h"
   595  0000                     TBLPTRU equ 0FF8h ;# 
   596                           # 2793 "C:\Program Files\HI-TECH Software\PICC-18\9.80\include\pic18f452.h"
   597  0000                     PCLAT equ 0FF9h ;# 
   598                           # 2798 "C:\Program Files\HI-TECH Software\PICC-18\9.80\include\pic18f452.h"
   599  0000                     PC equ 0FF9h ;# 
   600                           # 2816 "C:\Program Files\HI-TECH Software\PICC-18\9.80\include\pic18f452.h"
   601  0000                     PCL equ 0FF9h ;# 
   602                           # 2828 "C:\Program Files\HI-TECH Software\PICC-18\9.80\include\pic18f452.h"
   603  0000                     PCLATH equ 0FFAh ;# 
   604                           # 2840 "C:\Program Files\HI-TECH Software\PICC-18\9.80\include\pic18f452.h"
   605  0000                     PCLATU equ 0FFBh ;# 
   606                           # 2852 "C:\Program Files\HI-TECH Software\PICC-18\9.80\include\pic18f452.h"
   607  0000                     STKPTR equ 0FFCh ;# 
   608                           # 2883 "C:\Program Files\HI-TECH Software\PICC-18\9.80\include\pic18f452.h"
   609  0000                     TOS equ 0FFDh ;# 
   610                           # 2895 "C:\Program Files\HI-TECH Software\PICC-18\9.80\include\pic18f452.h"
   611  0000                     TOSL equ 0FFDh ;# 
   612                           # 2907 "C:\Program Files\HI-TECH Software\PICC-18\9.80\include\pic18f452.h"
   613  0000                     TOSH equ 0FFEh ;# 
   614                           # 2919 "C:\Program Files\HI-TECH Software\PICC-18\9.80\include\pic18f452.h"
   615  0000                     TOSU equ 0FFFh ;# 
   616                           	FNCALL	_main,_MotorDriver_Settings
   617                           	FNCALL	_main,_Analog2Digital_Settings
   618                           	FNCALL	_main,_LcdInitialize_Settings
   619                           	FNCALL	_main,_lcd_putsTwoint
   620                           	FNCALL	_main,_WaitinMilliseconds
   621                           	FNCALL	_main,_lcd_cmd
   622                           	FNCALL	_WaitinMilliseconds,_DelayMs
   623                           	FNCALL	_LcdInitialize_Settings,_WaitinMicroseconds
   624                           	FNCALL	_LcdInitialize_Settings,_lcd_init
   625                           	FNCALL	_LcdInitialize_Settings,_lcd_cmd
   626                           	FNCALL	_lcd_init,_DelayMs
   627                           	FNCALL	_lcd_init,_lcd_cmd
   628                           	FNCALL	_lcd_cmd,_DelayMs
   629                           	FNCALL	_lcd_putsTwoint,_sprintf
   630                           	FNCALL	_lcd_putsTwoint,_strcat
   631                           	FNCALL	_lcd_putsTwoint,_lcd_puts
   632                           	FNCALL	_lcd_puts,_lcd_data
   633                           	FNCALL	_lcd_data,_DelayMs
   634                           	FNCALL	_sprintf,___ftneg
   635                           	FNCALL	_sprintf,___wmul
   636                           	FNCALL	_sprintf,___awdiv
   637                           	FNCALL	_sprintf,_scale
   638                           	FNCALL	_sprintf,___asftmul
   639                           	FNCALL	_sprintf,___ftge
   640                           	FNCALL	_sprintf,_fround
   641                           	FNCALL	_sprintf,___asftadd
   642                           	FNCALL	_sprintf,___fttol
   643                           	FNCALL	_sprintf,__div_to_l_
   644                           	FNCALL	_sprintf,__tdiv_to_l_
   645                           	FNCALL	_sprintf,___lltoft
   646                           	FNCALL	_sprintf,___asftsub
   647                           	FNCALL	_sprintf,___lldiv
   648                           	FNCALL	_sprintf,___llmod
   649                           	FNCALL	_sprintf,___ftmul
   650                           	FNCALL	_fround,___awmod
   651                           	FNCALL	_fround,___awdiv
   652                           	FNCALL	_fround,___ftmul
   653                           	FNCALL	_scale,___awmod
   654                           	FNCALL	_scale,___awdiv
   655                           	FNCALL	_scale,___ftmul
   656                           	FNCALL	___lltoft,___ftpack
   657                           	FNCALL	___asftadd,___ftadd
   658                           	FNCALL	___asftmul,___ftmul
   659                           	FNCALL	___ftmul,___ftpack
   660                           	FNCALL	___asftsub,___ftsub
   661                           	FNCALL	___ftsub,___ftadd
   662                           	FNCALL	___ftadd,___ftpack
   663                           	FNROOT	_main
   664                           	global	_dpowers
   665                           psect	smallconst,class=SMALLCONST,space=0,reloc=2
   666                           global __psmallconst
   667  000600                     __psmallconst:
   668                           	file	"C:\Program Files\HI-TECH Software\PICC-18\9.80\sources\doprnt.c"
   669                           	line	354
   670  000600                     _dpowers:
   671  000600  0001               	dw	(01h) & 0xffff
   672  000602  0000               	dw	highword(01h)
   673  000604  000A               	dw	(0Ah) & 0xffff
   674  000606  0000               	dw	highword(0Ah)
   675  000608  0064               	dw	(064h) & 0xffff
   676  00060A  0000               	dw	highword(064h)
   677  00060C  03E8               	dw	(03E8h) & 0xffff
   678  00060E  0000               	dw	highword(03E8h)
   679  000610  2710               	dw	(02710h) & 0xffff
   680  000612  0000               	dw	highword(02710h)
   681  000614  86A0               	dw	(0186A0h) & 0xffff
   682  000616  0001               	dw	highword(0186A0h)
   683  000618  4240               	dw	(0F4240h) & 0xffff
   684  00061A  000F               	dw	highword(0F4240h)
   685  00061C  9680               	dw	(0989680h) & 0xffff
   686  00061E  0098               	dw	highword(0989680h)
   687  000620  E100               	dw	(05F5E100h) & 0xffff
   688  000622  05F5               	dw	highword(05F5E100h)
   689  000624  CA00               	dw	(03B9ACA00h) & 0xffff
   690  000626  3B9A               	dw	highword(03B9ACA00h)
   691                           	global	__npowers_
   692                           psect	smallconst
   693                           	file	"C:\Program Files\HI-TECH Software\PICC-18\9.80\sources\powers.c"
   694                           	line	39
   695  000628                     __npowers_:
   696  000628  00                 	db	low(float24(1.0000000000000000))
   697  000629  80                 	db	high(float24(1.0000000000000000))
   698  00062A  3F                 	db	low highword(float24(1.0000000000000000))
   699  00062B  CD                 	db	low(float24(0.10000000000000001))
   700  00062C  CC                 	db	high(float24(0.10000000000000001))
   701  00062D  3D                 	db	low highword(float24(0.10000000000000001))
   702  00062E  D7                 	db	low(float24(0.010000000000000000))
   703  00062F  23                 	db	high(float24(0.010000000000000000))
   704  000630  3C                 	db	low highword(float24(0.010000000000000000))
   705  000631  12                 	db	low(float24(0.0010000000000000000))
   706  000632  83                 	db	high(float24(0.0010000000000000000))
   707  000633  3A                 	db	low highword(float24(0.0010000000000000000))
   708  000634  B7                 	db	low(float24(0.00010000000000000000))
   709  000635  D1                 	db	high(float24(0.00010000000000000000))
   710  000636  38                 	db	low highword(float24(0.00010000000000000000))
   711  000637  C6                 	db	low(float24(1.0000000000000001e-005))
   712  000638  27                 	db	high(float24(1.0000000000000001e-005))
   713  000639  37                 	db	low highword(float24(1.0000000000000001e-005))
   714  00063A  38                 	db	low(float24(9.9999999999999995e-007))
   715  00063B  86                 	db	high(float24(9.9999999999999995e-007))
   716  00063C  35                 	db	low highword(float24(9.9999999999999995e-007))
   717  00063D  C0                 	db	low(float24(9.9999999999999995e-008))
   718  00063E  D6                 	db	high(float24(9.9999999999999995e-008))
   719  00063F  33                 	db	low highword(float24(9.9999999999999995e-008))
   720  000640  CC                 	db	low(float24(1.0000000000000000e-008))
   721  000641  2B                 	db	high(float24(1.0000000000000000e-008))
   722  000642  32                 	db	low highword(float24(1.0000000000000000e-008))
   723  000643  70                 	db	low(float24(1.0000000000000001e-009))
   724  000644  89                 	db	high(float24(1.0000000000000001e-009))
   725  000645  30                 	db	low highword(float24(1.0000000000000001e-009))
   726  000646  E7                 	db	low(float24(1.0000000000000000e-010))
   727  000647  DB                 	db	high(float24(1.0000000000000000e-010))
   728  000648  2E                 	db	low highword(float24(1.0000000000000000e-010))
   729  000649  E5                 	db	low(float24(9.9999999999999995e-021))
   730  00064A  3C                 	db	high(float24(9.9999999999999995e-021))
   731  00064B  1E                 	db	low highword(float24(9.9999999999999995e-021))
   732  00064C  42                 	db	low(float24(1.0000000000000001e-030))
   733  00064D  A2                 	db	high(float24(1.0000000000000001e-030))
   734  00064E  0D                 	db	low highword(float24(1.0000000000000001e-030))
   735                           	global	__powers_
   736                           psect	smallconst
   737                           	file	"C:\Program Files\HI-TECH Software\PICC-18\9.80\sources\powers.c"
   738                           	line	7
   739  00064F                     __powers_:
   740  00064F  00                 	db	low(float24(1.0000000000000000))
   741  000650  80                 	db	high(float24(1.0000000000000000))
   742  000651  3F                 	db	low highword(float24(1.0000000000000000))
   743  000652  00                 	db	low(float24(10.000000000000000))
   744  000653  20                 	db	high(float24(10.000000000000000))
   745  000654  41                 	db	low highword(float24(10.000000000000000))
   746  000655  00                 	db	low(float24(100.00000000000000))
   747  000656  C8                 	db	high(float24(100.00000000000000))
   748  000657  42                 	db	low highword(float24(100.00000000000000))
   749  000658  00                 	db	low(float24(1000.0000000000000))
   750  000659  7A                 	db	high(float24(1000.0000000000000))
   751  00065A  44                 	db	low highword(float24(1000.0000000000000))
   752  00065B  40                 	db	low(float24(10000.000000000000))
   753  00065C  1C                 	db	high(float24(10000.000000000000))
   754  00065D  46                 	db	low highword(float24(10000.000000000000))
   755  00065E  50                 	db	low(float24(100000.00000000000))
   756  00065F  C3                 	db	high(float24(100000.00000000000))
   757  000660  47                 	db	low highword(float24(100000.00000000000))
   758  000661  24                 	db	low(float24(1000000.0000000000))
   759  000662  74                 	db	high(float24(1000000.0000000000))
   760  000663  49                 	db	low highword(float24(1000000.0000000000))
   761  000664  97                 	db	low(float24(10000000.000000000))
   762  000665  18                 	db	high(float24(10000000.000000000))
   763  000666  4B                 	db	low highword(float24(10000000.000000000))
   764  000667  BC                 	db	low(float24(100000000.00000000))
   765  000668  BE                 	db	high(float24(100000000.00000000))
   766  000669  4C                 	db	low highword(float24(100000000.00000000))
   767  00066A  6B                 	db	low(float24(1000000000.0000000))
   768  00066B  6E                 	db	high(float24(1000000000.0000000))
   769  00066C  4E                 	db	low highword(float24(1000000000.0000000))
   770  00066D  03                 	db	low(float24(10000000000.000000))
   771  00066E  15                 	db	high(float24(10000000000.000000))
   772  00066F  50                 	db	low highword(float24(10000000000.000000))
   773  000670  79                 	db	low(float24(1.0000000000000000e+020))
   774  000671  AD                 	db	high(float24(1.0000000000000000e+020))
   775  000672  60                 	db	low highword(float24(1.0000000000000000e+020))
   776  000673  F3                 	db	low(float24(1.0000000000000000e+030))
   777  000674  49                 	db	high(float24(1.0000000000000000e+030))
   778  000675  71                 	db	low highword(float24(1.0000000000000000e+030))
   779                           	global	_dpowers
   780                           	global	__npowers_
   781                           	global	__powers_
   782                           	global	_fourbit
   783                           	global	lcd_putsTwoint@F3371
   784                           	global	_ADCON0bits
   785  0000                     _ADCON0bits	set	0xFC2
   786                           	global	_ADCON1bits
   787  0000                     _ADCON1bits	set	0xFC1
   788                           	global	_ADRESH
   789  0000                     _ADRESH	set	0xFC4
   790                           	global	_CCP1CON
   791  0000                     _CCP1CON	set	0xFBD
   792                           	global	_CCP2CON
   793  0000                     _CCP2CON	set	0xFBA
   794                           	global	_CCPR1L
   795  0000                     _CCPR1L	set	0xFBE
   796                           	global	_CCPR2L
   797  0000                     _CCPR2L	set	0xFBB
   798                           	global	_LATD
   799  0000                     _LATD	set	0xF8C
   800                           	global	_PR2
   801  0000                     _PR2	set	0xFCB
   802                           	global	_T2CON
   803  0000                     _T2CON	set	0xFCA
   804                           	global	_TMR2
   805  0000                     _TMR2	set	0xFCC
   806                           	global	_TRISD
   807  0000                     _TRISD	set	0xF95
   808                           	global	_CCP1X
   809  0000                     _CCP1X	set	0x7DED
   810                           	global	_CCP1Y
   811  0000                     _CCP1Y	set	0x7DEC
   812                           	global	_CCP2X
   813  0000                     _CCP2X	set	0x7DD5
   814                           	global	_CCP2Y
   815  0000                     _CCP2Y	set	0x7DD4
   816                           	global	_LB1
   817  0000                     _LB1	set	0x7C51
   818                           	global	_LB2
   819  0000                     _LB2	set	0x7C52
   820                           	global	_LB3
   821  0000                     _LB3	set	0x7C53
   822                           	global	_RB4
   823  0000                     _RB4	set	0x7C0C
   824                           	global	_RB5
   825  0000                     _RB5	set	0x7C0D
   826                           	global	_RB6
   827  0000                     _RB6	set	0x7C0E
   828                           	global	_RB7
   829  0000                     _RB7	set	0x7C0F
   830                           	global	_TRISA0
   831  0000                     _TRISA0	set	0x7C90
   832                           	global	_TRISA1
   833  0000                     _TRISA1	set	0x7C91
   834                           	global	_TRISB1
   835  0000                     _TRISB1	set	0x7C99
   836                           	global	_TRISB2
   837  0000                     _TRISB2	set	0x7C9A
   838                           	global	_TRISB3
   839  0000                     _TRISB3	set	0x7C9B
   840                           	global	_TRISB4
   841  0000                     _TRISB4	set	0x7C9C
   842                           	global	_TRISB5
   843  0000                     _TRISB5	set	0x7C9D
   844                           	global	_TRISB6
   845  0000                     _TRISB6	set	0x7C9E
   846                           	global	_TRISB7
   847  0000                     _TRISB7	set	0x7C9F
   848                           	global	_TRISC1
   849  0000                     _TRISC1	set	0x7CA1
   850                           	global	_TRISC2
   851  0000                     _TRISC2	set	0x7CA2
   852                           	
   853  000676                     STR_4:
   854  000676  4C                 	db	76	;'L'
   855  000677  74                 	db	116	;'t'
   856  000678  3A                 	db	58	;':'
   857  000679  00                 	db	0
   858                           	
   859  00067A                     STR_6:
   860  00067A  52                 	db	82	;'R'
   861  00067B  74                 	db	116	;'t'
   862  00067C  3A                 	db	58	;':'
   863  00067D  00                 	db	0
   864                           	
   865  00067E                     STR_1:
   866  00067E  25                 	db	37
   867  00067F  64                 	db	100	;'d'
   868  000680  00                 	db	0
   869                           	
   870  000681                     STR_7:
   871  000681  25                 	db	37
   872  000682  66                 	db	102	;'f'
   873  000683  00                 	db	0
   874                           	
   875  000684                     STR_5:
   876  000684  20                 	db	32
   877  000685  00                 	db	0
   878  0000                     STR_2	equ	STR_1+0
   879  0000                     STR_3	equ	STR_1+0
   880                           ; #config settings
   881                           global __CFG_OSCS$ON
   882  0000                     __CFG_OSCS$ON equ 0x0
   883                           global __CFG_OSC$HS
   884  0000                     __CFG_OSC$HS equ 0x0
   885                           global __CFG_BOR$ON
   886  0000                     __CFG_BOR$ON equ 0x0
   887                           global __CFG_BORV$20
   888  0000                     __CFG_BORV$20 equ 0x0
   889                           global __CFG_PWRT$OFF
   890  0000                     __CFG_PWRT$OFF equ 0x0
   891                           global __CFG_WDTPS$128
   892  0000                     __CFG_WDTPS$128 equ 0x0
   893                           global __CFG_WDT$OFF
   894  0000                     __CFG_WDT$OFF equ 0x0
   895                           global __CFG_CCP2MUX$ON
   896  0000                     __CFG_CCP2MUX$ON equ 0x0
   897                           global __CFG_DEBUG$OFF
   898  0000                     __CFG_DEBUG$OFF equ 0x0
   899                           global __CFG_LVP$OFF
   900  0000                     __CFG_LVP$OFF equ 0x0
   901                           global __CFG_STVR$ON
   902  0000                     __CFG_STVR$ON equ 0x0
   903                           global __CFG_CP0$OFF
   904  0000                     __CFG_CP0$OFF equ 0x0
   905                           global __CFG_CP1$OFF
   906  0000                     __CFG_CP1$OFF equ 0x0
   907                           global __CFG_CP2$OFF
   908  0000                     __CFG_CP2$OFF equ 0x0
   909                           global __CFG_CP3$OFF
   910  0000                     __CFG_CP3$OFF equ 0x0
   911                           global __CFG_CPD$OFF
   912  0000                     __CFG_CPD$OFF equ 0x0
   913                           global __CFG_CPB$OFF
   914  0000                     __CFG_CPB$OFF equ 0x0
   915                           	file	"C:\Users\Viki\AppData\Local\Temp\s2g8."
   916                           	line	#
   917                           psect	cinit,class=CODE,delta=1,reloc=2
   918                           global __pcinit
   919  0028A8                     __pcinit:
   920                           global start_initialization
   921  0028A8                     start_initialization:
   922                           
   923                           psect	bitbssCOMRAM,class=COMRAM,bit,space=1
   924                           global __pbitbssCOMRAM
   925  0003B0                     __pbitbssCOMRAM:
   926  0003B0                     _fourbit:
   927  0003B0                            ds      1
   928                           psect	bssBANK0,class=BANK0,space=1
   929                           global __pbssBANK0
   930  00009B                     __pbssBANK0:
   931  00009B                     lcd_putsTwoint@F3371:
   932  00009B                            ds      15
   933                           psect	cinit
   934                           ; Clear objects allocated to BANK0 (15 bytes)
   935                           	global __pbssBANK0
   936  0028A8  EE00  F09B         lfsr	0,__pbssBANK0
   937  0028AC  0E0F               movlw	15
   938  0028AE                     clear_0:
   939  0028AE  6AEE               clrf	postinc0,c
   940  0028B0  06E8               decf	wreg
   941  0028B2  E1FD               bnz	clear_0
   942                           ; Clear objects allocated to BITCOMRAM (1 bytes)
   943                           	global __pbitbssCOMRAM
   944  0028B4  6A76               clrf	(__pbitbssCOMRAM/8+0)&0xffh,c
   945                           psect cinit,class=CODE,delta=1
   946                           global end_of_initialization
   947                           
   948                           ;End of C runtime variable initialization code
   949                           
   950  0028B6                     end_of_initialization:
   951                           	GLOBAL	__Lmediumconst
   952  0028B6  0E00               	movlw	low highword(__Lmediumconst)
   953  0028B8  6EF8               	movwf	tblptru
   954  0028BA  0100               movlb 0
   955  0028BC  EF20  F010         goto _main	;jump to C main() function
   956                           psect	cstackBANK0,class=BANK0,space=1
   957                           global __pcstackBANK0
   958  000080                     __pcstackBANK0:
   959                           	global	lcd_putsTwoint@crgValue
   960  000080                     lcd_putsTwoint@crgValue:	; 15 bytes @ 0x0
   961  000080                     	ds   15
   962                           	global	lcd_putsTwoint@crgFirstValue
   963  00008F                     lcd_putsTwoint@crgFirstValue:	; 5 bytes @ 0xF
   964  00008F                     	ds   5
   965                           	global	lcd_putsTwoint@crgSecondValue
   966  000094                     lcd_putsTwoint@crgSecondValue:	; 5 bytes @ 0x14
   967  000094                     	ds   5
   968                           	global	lcd_putsTwoint@cptrValue
   969  000099                     lcd_putsTwoint@cptrValue:	; 2 bytes @ 0x19
   970  000099                     	ds   2
   971                           psect	cstackCOMRAM,class=COMRAM,space=1
   972                           global __pcstackCOMRAM
   973  000001                     __pcstackCOMRAM:
   974                           	global	?_DelayMs
   975  000001                     ?_DelayMs:	; 0 bytes @ 0x0
   976                           	global	?_WaitinMicroseconds
   977  000001                     ?_WaitinMicroseconds:	; 0 bytes @ 0x0
   978                           	global	?_MotorDriver_Settings
   979  000001                     ?_MotorDriver_Settings:	; 0 bytes @ 0x0
   980                           	global	??_MotorDriver_Settings
   981  000001                     ??_MotorDriver_Settings:	; 0 bytes @ 0x0
   982                           	global	?_LcdInitialize_Settings
   983  000001                     ?_LcdInitialize_Settings:	; 0 bytes @ 0x0
   984                           	global	?_Analog2Digital_Settings
   985  000001                     ?_Analog2Digital_Settings:	; 0 bytes @ 0x0
   986                           	global	??_Analog2Digital_Settings
   987  000001                     ??_Analog2Digital_Settings:	; 0 bytes @ 0x0
   988                           	global	?_main
   989  000001                     ?_main:	; 0 bytes @ 0x0
   990                           	global	?___ftge
   991  000001                     ?___ftge:	; 1 bit 
   992                           	global	?_strcat
   993  000001                     ?_strcat:	; 2 bytes @ 0x0
   994                           	global	?___awmod
   995  000001                     ?___awmod:	; 2 bytes @ 0x0
   996                           	global	?___wmul
   997  000001                     ?___wmul:	; 2 bytes @ 0x0
   998                           	global	?___ftpack
   999  000001                     ?___ftpack:	; 3 bytes @ 0x0
  1000                           	global	?___ftneg
  1001  000001                     ?___ftneg:	; 3 bytes @ 0x0
  1002                           	global	?__tdiv_to_l_
  1003  000001                     ?__tdiv_to_l_:	; 4 bytes @ 0x0
  1004                           	global	?__div_to_l_
  1005  000001                     ?__div_to_l_:	; 4 bytes @ 0x0
  1006                           	global	?___lldiv
  1007  000001                     ?___lldiv:	; 4 bytes @ 0x0
  1008                           	global	DelayMs@cnt
  1009  000001                     DelayMs@cnt:	; 1 bytes @ 0x0
  1010                           	global	WaitinMicroseconds@delay
  1011  000001                     WaitinMicroseconds@delay:	; 2 bytes @ 0x0
  1012                           	global	___awmod@dividend
  1013  000001                     ___awmod@dividend:	; 2 bytes @ 0x0
  1014                           	global	strcat@to
  1015  000001                     strcat@to:	; 2 bytes @ 0x0
  1016                           	global	___wmul@multiplier
  1017  000001                     ___wmul@multiplier:	; 2 bytes @ 0x0
  1018                           	global	__div_to_l_@f1
  1019  000001                     __div_to_l_@f1:	; 3 bytes @ 0x0
  1020                           	global	___ftpack@arg
  1021  000001                     ___ftpack@arg:	; 3 bytes @ 0x0
  1022                           	global	__tdiv_to_l_@f1
  1023  000001                     __tdiv_to_l_@f1:	; 3 bytes @ 0x0
  1024                           	global	___ftge@ff1
  1025  000001                     ___ftge@ff1:	; 3 bytes @ 0x0
  1026                           	global	___ftneg@f1
  1027  000001                     ___ftneg@f1:	; 3 bytes @ 0x0
  1028                           	global	___lldiv@dividend
  1029  000001                     ___lldiv@dividend:	; 4 bytes @ 0x0
  1030  000001                     	ds   1
  1031                           	global	??_DelayMs
  1032  000002                     ??_DelayMs:	; 0 bytes @ 0x1
  1033  000002                     	ds   1
  1034                           	global	??_WaitinMicroseconds
  1035  000003                     ??_WaitinMicroseconds:	; 0 bytes @ 0x2
  1036                           	global	DelayMs@i
  1037  000003                     DelayMs@i:	; 1 bytes @ 0x2
  1038                           	global	___awmod@divisor
  1039  000003                     ___awmod@divisor:	; 2 bytes @ 0x2
  1040                           	global	strcat@from
  1041  000003                     strcat@from:	; 2 bytes @ 0x2
  1042                           	global	___wmul@multiplicand
  1043  000003                     ___wmul@multiplicand:	; 2 bytes @ 0x2
  1044  000003                     	ds   1
  1045                           	global	??___ftneg
  1046  000004                     ??___ftneg:	; 0 bytes @ 0x3
  1047                           	global	WaitinMicroseconds@_dcnt
  1048  000004                     WaitinMicroseconds@_dcnt:	; 1 bytes @ 0x3
  1049                           	global	DelayMs@_dcnt
  1050  000004                     DelayMs@_dcnt:	; 1 bytes @ 0x3
  1051                           	global	___ftpack@exp
  1052  000004                     ___ftpack@exp:	; 1 bytes @ 0x3
  1053                           	global	__div_to_l_@f2
  1054  000004                     __div_to_l_@f2:	; 3 bytes @ 0x3
  1055                           	global	__tdiv_to_l_@f2
  1056  000004                     __tdiv_to_l_@f2:	; 3 bytes @ 0x3
  1057                           	global	___ftge@ff2
  1058  000004                     ___ftge@ff2:	; 3 bytes @ 0x3
  1059  000004                     	ds   1
  1060                           	global	?_lcd_cmd
  1061  000005                     ?_lcd_cmd:	; 0 bytes @ 0x4
  1062                           	global	??_strcat
  1063  000005                     ??_strcat:	; 0 bytes @ 0x4
  1064                           	global	?_WaitinMilliseconds
  1065  000005                     ?_WaitinMilliseconds:	; 0 bytes @ 0x4
  1066                           	global	?_lcd_data
  1067  000005                     ?_lcd_data:	; 0 bytes @ 0x4
  1068                           	global	??___awmod
  1069  000005                     ??___awmod:	; 0 bytes @ 0x4
  1070                           	global	??___wmul
  1071  000005                     ??___wmul:	; 0 bytes @ 0x4
  1072                           	global	lcd_cmd@c
  1073  000005                     lcd_cmd@c:	; 1 bytes @ 0x4
  1074                           	global	lcd_data@c
  1075  000005                     lcd_data@c:	; 1 bytes @ 0x4
  1076                           	global	___ftpack@sign
  1077  000005                     ___ftpack@sign:	; 1 bytes @ 0x4
  1078                           	global	WaitinMilliseconds@delay
  1079  000005                     WaitinMilliseconds@delay:	; 2 bytes @ 0x4
  1080                           	global	___wmul@product
  1081  000005                     ___wmul@product:	; 2 bytes @ 0x4
  1082                           	global	___lldiv@divisor
  1083  000005                     ___lldiv@divisor:	; 4 bytes @ 0x4
  1084  000005                     	ds   1
  1085                           	global	??_lcd_cmd
  1086  000006                     ??_lcd_cmd:	; 0 bytes @ 0x5
  1087                           	global	??___ftpack
  1088  000006                     ??___ftpack:	; 0 bytes @ 0x5
  1089                           	global	??_lcd_data
  1090  000006                     ??_lcd_data:	; 0 bytes @ 0x5
  1091                           	global	___awmod@counter
  1092  000006                     ___awmod@counter:	; 1 bytes @ 0x5
  1093  000006                     	ds   1
  1094                           	global	?_lcd_init
  1095  000007                     ?_lcd_init:	; 0 bytes @ 0x6
  1096                           	global	??__tdiv_to_l_
  1097  000007                     ??__tdiv_to_l_:	; 0 bytes @ 0x6
  1098                           	global	??__div_to_l_
  1099  000007                     ??__div_to_l_:	; 0 bytes @ 0x6
  1100                           	global	??_WaitinMilliseconds
  1101  000007                     ??_WaitinMilliseconds:	; 0 bytes @ 0x6
  1102                           	global	?_lcd_puts
  1103  000007                     ?_lcd_puts:	; 0 bytes @ 0x6
  1104                           	global	??___ftge
  1105  000007                     ??___ftge:	; 0 bytes @ 0x6
  1106                           	global	lcd_init@mode
  1107  000007                     lcd_init@mode:	; 1 bytes @ 0x6
  1108                           	global	___awmod@sign
  1109  000007                     ___awmod@sign:	; 1 bytes @ 0x6
  1110                           	global	lcd_puts@s
  1111  000007                     lcd_puts@s:	; 2 bytes @ 0x6
  1112                           	global	strcat@cp
  1113  000007                     strcat@cp:	; 2 bytes @ 0x6
  1114  000007                     	ds   1
  1115                           	global	??_lcd_init
  1116  000008                     ??_lcd_init:	; 0 bytes @ 0x7
  1117                           	global	?___awdiv
  1118  000008                     ?___awdiv:	; 2 bytes @ 0x7
  1119                           	global	___awdiv@dividend
  1120  000008                     ___awdiv@dividend:	; 2 bytes @ 0x7
  1121                           	global	__div_to_l_@quot
  1122  000008                     __div_to_l_@quot:	; 4 bytes @ 0x7
  1123  000008                     	ds   1
  1124                           	global	??_lcd_puts
  1125  000009                     ??_lcd_puts:	; 0 bytes @ 0x8
  1126                           	global	??___lldiv
  1127  000009                     ??___lldiv:	; 0 bytes @ 0x8
  1128                           	global	?___ftadd
  1129  000009                     ?___ftadd:	; 3 bytes @ 0x8
  1130                           	global	?___lltoft
  1131  000009                     ?___lltoft:	; 3 bytes @ 0x8
  1132                           	global	lcd_init@_dcnt
  1133  000009                     lcd_init@_dcnt:	; 1 bytes @ 0x8
  1134                           	global	___ftadd@f1
  1135  000009                     ___ftadd@f1:	; 3 bytes @ 0x8
  1136                           	global	___lltoft@c
  1137  000009                     ___lltoft@c:	; 4 bytes @ 0x8
  1138  000009                     	ds   1
  1139                           	global	lcd_init@init_value
  1140  00000A                     lcd_init@init_value:	; 1 bytes @ 0x9
  1141                           	global	___awdiv@divisor
  1142  00000A                     ___awdiv@divisor:	; 2 bytes @ 0x9
  1143                           	global	___lldiv@quotient
  1144  00000A                     ___lldiv@quotient:	; 4 bytes @ 0x9
  1145  00000A                     	ds   1
  1146                           	global	??_LcdInitialize_Settings
  1147  00000B                     ??_LcdInitialize_Settings:	; 0 bytes @ 0xA
  1148  00000B                     	ds   1
  1149                           	global	??___awdiv
  1150  00000C                     ??___awdiv:	; 0 bytes @ 0xB
  1151                           	global	__div_to_l_@cntr
  1152  00000C                     __div_to_l_@cntr:	; 1 bytes @ 0xB
  1153                           	global	___ftadd@f2
  1154  00000C                     ___ftadd@f2:	; 3 bytes @ 0xB
  1155                           	global	__tdiv_to_l_@quot
  1156  00000C                     __tdiv_to_l_@quot:	; 4 bytes @ 0xB
  1157  00000C                     	ds   1
  1158                           	global	??___lltoft
  1159  00000D                     ??___lltoft:	; 0 bytes @ 0xC
  1160                           	global	___awdiv@counter
  1161  00000D                     ___awdiv@counter:	; 1 bytes @ 0xC
  1162                           	global	__div_to_l_@exp1
  1163  00000D                     __div_to_l_@exp1:	; 1 bytes @ 0xC
  1164  00000D                     	ds   1
  1165                           	global	___awdiv@sign
  1166  00000E                     ___awdiv@sign:	; 1 bytes @ 0xD
  1167                           	global	___lldiv@counter
  1168  00000E                     ___lldiv@counter:	; 1 bytes @ 0xD
  1169  00000E                     	ds   1
  1170                           	global	??___ftadd
  1171  00000F                     ??___ftadd:	; 0 bytes @ 0xE
  1172                           	global	?___llmod
  1173  00000F                     ?___llmod:	; 4 bytes @ 0xE
  1174                           	global	___awdiv@quotient
  1175  00000F                     ___awdiv@quotient:	; 2 bytes @ 0xE
  1176                           	global	___llmod@dividend
  1177  00000F                     ___llmod@dividend:	; 4 bytes @ 0xE
  1178  00000F                     	ds   1
  1179                           	global	__tdiv_to_l_@cntr
  1180  000010                     __tdiv_to_l_@cntr:	; 1 bytes @ 0xF
  1181  000010                     	ds   1
  1182                           	global	?___fttol
  1183  000011                     ?___fttol:	; 4 bytes @ 0x10
  1184                           	global	__tdiv_to_l_@exp1
  1185  000011                     __tdiv_to_l_@exp1:	; 1 bytes @ 0x10
  1186                           	global	___lltoft@exp
  1187  000011                     ___lltoft@exp:	; 1 bytes @ 0x10
  1188                           	global	___fttol@f1
  1189  000011                     ___fttol@f1:	; 3 bytes @ 0x10
  1190  000011                     	ds   2
  1191                           	global	___llmod@divisor
  1192  000013                     ___llmod@divisor:	; 4 bytes @ 0x12
  1193  000013                     	ds   1
  1194                           	global	___ftadd@sign
  1195  000014                     ___ftadd@sign:	; 1 bytes @ 0x13
  1196  000014                     	ds   1
  1197                           	global	??___fttol
  1198  000015                     ??___fttol:	; 0 bytes @ 0x14
  1199                           	global	___ftadd@exp2
  1200  000015                     ___ftadd@exp2:	; 1 bytes @ 0x14
  1201  000015                     	ds   1
  1202                           	global	___ftadd@exp1
  1203  000016                     ___ftadd@exp1:	; 1 bytes @ 0x15
  1204  000016                     	ds   1
  1205                           	global	??___llmod
  1206  000017                     ??___llmod:	; 0 bytes @ 0x16
  1207                           	global	?___ftsub
  1208  000017                     ?___ftsub:	; 3 bytes @ 0x16
  1209                           	global	___ftsub@f1
  1210  000017                     ___ftsub@f1:	; 3 bytes @ 0x16
  1211  000017                     	ds   1
  1212                           	global	___llmod@counter
  1213  000018                     ___llmod@counter:	; 1 bytes @ 0x17
  1214  000018                     	ds   2
  1215                           	global	___fttol@sign1
  1216  00001A                     ___fttol@sign1:	; 1 bytes @ 0x19
  1217                           	global	___ftsub@f2
  1218  00001A                     ___ftsub@f2:	; 3 bytes @ 0x19
  1219  00001A                     	ds   1
  1220                           	global	___fttol@lval
  1221  00001B                     ___fttol@lval:	; 4 bytes @ 0x1A
  1222  00001B                     	ds   2
  1223                           	global	??___ftsub
  1224  00001D                     ??___ftsub:	; 0 bytes @ 0x1C
  1225                           	global	?___asftsub
  1226  00001D                     ?___asftsub:	; 3 bytes @ 0x1C
  1227                           	global	___asftsub@f1p
  1228  00001D                     ___asftsub@f1p:	; 2 bytes @ 0x1C
  1229  00001D                     	ds   2
  1230                           	global	___fttol@exp1
  1231  00001F                     ___fttol@exp1:	; 1 bytes @ 0x1E
  1232                           	global	___asftsub@f2
  1233  00001F                     ___asftsub@f2:	; 3 bytes @ 0x1E
  1234  00001F                     	ds   1
  1235                           	global	?___ftmul
  1236  000020                     ?___ftmul:	; 3 bytes @ 0x1F
  1237                           	global	___ftmul@f1
  1238  000020                     ___ftmul@f1:	; 3 bytes @ 0x1F
  1239  000020                     	ds   2
  1240                           	global	??___asftsub
  1241  000022                     ??___asftsub:	; 0 bytes @ 0x21
  1242  000022                     	ds   1
  1243                           	global	___ftmul@f2
  1244  000023                     ___ftmul@f2:	; 3 bytes @ 0x22
  1245  000023                     	ds   3
  1246                           	global	??___ftmul
  1247  000026                     ??___ftmul:	; 0 bytes @ 0x25
  1248  000026                     	ds   5
  1249                           	global	___ftmul@exp
  1250  00002B                     ___ftmul@exp:	; 1 bytes @ 0x2A
  1251  00002B                     	ds   1
  1252                           	global	___ftmul@f3_as_product
  1253  00002C                     ___ftmul@f3_as_product:	; 3 bytes @ 0x2B
  1254  00002C                     	ds   3
  1255                           	global	___ftmul@cntr
  1256  00002F                     ___ftmul@cntr:	; 1 bytes @ 0x2E
  1257  00002F                     	ds   1
  1258                           	global	___ftmul@sign
  1259  000030                     ___ftmul@sign:	; 1 bytes @ 0x2F
  1260  000030                     	ds   1
  1261                           	global	?_fround
  1262  000031                     ?_fround:	; 3 bytes @ 0x30
  1263                           	global	?_scale
  1264  000031                     ?_scale:	; 3 bytes @ 0x30
  1265                           	global	?___asftmul
  1266  000031                     ?___asftmul:	; 3 bytes @ 0x30
  1267                           	global	fround@prec
  1268  000031                     fround@prec:	; 1 bytes @ 0x30
  1269                           	global	scale@scl
  1270  000031                     scale@scl:	; 1 bytes @ 0x30
  1271                           	global	___asftmul@f1p
  1272  000031                     ___asftmul@f1p:	; 2 bytes @ 0x30
  1273  000031                     	ds   2
  1274                           	global	___asftmul@f2
  1275  000033                     ___asftmul@f2:	; 3 bytes @ 0x32
  1276  000033                     	ds   1
  1277                           	global	??_fround
  1278  000034                     ??_fround:	; 0 bytes @ 0x33
  1279                           	global	??_scale
  1280  000034                     ??_scale:	; 0 bytes @ 0x33
  1281  000034                     	ds   2
  1282                           	global	??___asftmul
  1283  000036                     ??___asftmul:	; 0 bytes @ 0x35
  1284  000036                     	ds   4
  1285                           	global	_fround$933
  1286  00003A                     _fround$933:	; 3 bytes @ 0x39
  1287                           	global	_scale$934
  1288  00003A                     _scale$934:	; 3 bytes @ 0x39
  1289  00003A                     	ds   3
  1290                           	global	_fround$932
  1291  00003D                     _fround$932:	; 3 bytes @ 0x3C
  1292  00003D                     	ds   3
  1293                           	global	?___asftadd
  1294  000040                     ?___asftadd:	; 3 bytes @ 0x3F
  1295                           	global	___asftadd@f1p
  1296  000040                     ___asftadd@f1p:	; 2 bytes @ 0x3F
  1297  000040                     	ds   2
  1298                           	global	___asftadd@f2
  1299  000042                     ___asftadd@f2:	; 3 bytes @ 0x41
  1300  000042                     	ds   3
  1301                           	global	??___asftadd
  1302  000045                     ??___asftadd:	; 0 bytes @ 0x44
  1303                           	global	?_sprintf
  1304  000045                     ?_sprintf:	; 2 bytes @ 0x44
  1305                           	global	sprintf@sp
  1306  000045                     sprintf@sp:	; 2 bytes @ 0x44
  1307  000045                     	ds   2
  1308                           	global	sprintf@f
  1309  000047                     sprintf@f:	; 2 bytes @ 0x46
  1310  000047                     	ds   5
  1311                           	global	??_sprintf
  1312  00004C                     ??_sprintf:	; 0 bytes @ 0x4B
  1313  00004C                     	ds   6
  1314                           	global	_sprintf$935
  1315  000052                     _sprintf$935:	; 3 bytes @ 0x51
  1316  000052                     	ds   3
  1317                           	global	_sprintf$344
  1318  000055                     _sprintf$344:	; 4 bytes @ 0x54
  1319  000055                     	ds   4
  1320                           	global	sprintf@ap
  1321  000059                     sprintf@ap:	; 2 bytes @ 0x58
  1322  000059                     	ds   2
  1323                           	global	sprintf@flag
  1324  00005B                     sprintf@flag:	; 2 bytes @ 0x5A
  1325  00005B                     	ds   2
  1326                           	global	sprintf@integ
  1327  00005D                     sprintf@integ:	; 3 bytes @ 0x5C
  1328  00005D                     	ds   3
  1329                           	global	sprintf@prec
  1330  000060                     sprintf@prec:	; 2 bytes @ 0x5F
  1331  000060                     	ds   2
  1332                           	global	sprintf@_val
  1333  000062                     sprintf@_val:	; 5 bytes @ 0x61
  1334  000062                     	ds   5
  1335                           	global	sprintf@exp
  1336  000067                     sprintf@exp:	; 2 bytes @ 0x66
  1337  000067                     	ds   2
  1338                           	global	sprintf@fval
  1339  000069                     sprintf@fval:	; 3 bytes @ 0x68
  1340  000069                     	ds   3
  1341                           	global	sprintf@c
  1342  00006C                     sprintf@c:	; 1 bytes @ 0x6B
  1343  00006C                     	ds   1
  1344                           	global	?_lcd_putsTwoint
  1345  00006D                     ?_lcd_putsTwoint:	; 0 bytes @ 0x6C
  1346                           	global	lcd_putsTwoint@iFirstValue
  1347  00006D                     lcd_putsTwoint@iFirstValue:	; 2 bytes @ 0x6C
  1348  00006D                     	ds   2
  1349                           	global	lcd_putsTwoint@iSecondValue
  1350  00006F                     lcd_putsTwoint@iSecondValue:	; 2 bytes @ 0x6E
  1351  00006F                     	ds   2
  1352                           	global	??_lcd_putsTwoint
  1353  000071                     ??_lcd_putsTwoint:	; 0 bytes @ 0x70
  1354                           	global	??_main
  1355  000071                     ??_main:	; 0 bytes @ 0x70
  1356  000071                     	ds   1
  1357                           	global	main@iLeftVolt
  1358  000072                     main@iLeftVolt:	; 2 bytes @ 0x71
  1359  000072                     	ds   2
  1360                           	global	main@iRightVolt
  1361  000074                     main@iRightVolt:	; 2 bytes @ 0x73
  1362  000074                     	ds   2
  1363                           ;!
  1364                           ;!Data Sizes:
  1365                           ;!    Strings     16
  1366                           ;!    Constant    118
  1367                           ;!    Data        0
  1368                           ;!    BSS         15
  1369                           ;!    Persistent  0
  1370                           ;!    Stack       0
  1371                           ;!
  1372                           ;!Auto Spaces:
  1373                           ;!    Space          Size  Autos    Used
  1374                           ;!    COMRAM          127    117     118
  1375                           ;!    BANK0           128     27      42
  1376                           ;!    BANK1           256      0       0
  1377                           ;!    BANK2           256      0       0
  1378                           ;!    BANK3           256      0       0
  1379                           ;!    BANK4           256      0       0
  1380                           ;!    BANK5           256      0       0
  1381                           
  1382                           ;!
  1383                           ;!Pointer List with Targets:
  1384                           ;!
  1385                           ;!    ?___ftsub	float  size(2) Largest target is 0
  1386                           ;!
  1387                           ;!    ?___ftadd	float  size(2) Largest target is 0
  1388                           ;!
  1389                           ;!    ?___ftpack	float  size(2) Largest target is 0
  1390                           ;!
  1391                           ;!    ?___llmod	unsigned long  size(2) Largest target is 0
  1392                           ;!
  1393                           ;!    ?___lldiv	unsigned long  size(2) Largest target is 0
  1394                           ;!
  1395                           ;!    ?___asftsub	float  size(2) Largest target is 0
  1396                           ;!
  1397                           ;!    ?___lltoft	float  size(2) Largest target is 0
  1398                           ;!
  1399                           ;!    ?__tdiv_to_l_	unsigned long  size(2) Largest target is 0
  1400                           ;!
  1401                           ;!    ?__div_to_l_	unsigned long  size(2) Largest target is 0
  1402                           ;!
  1403                           ;!    ?___fttol	long  size(2) Largest target is 0
  1404                           ;!
  1405                           ;!    ?___asftadd	float  size(2) Largest target is 0
  1406                           ;!
  1407                           ;!    ?___asftmul	float  size(2) Largest target is 0
  1408                           ;!
  1409                           ;!    ?___ftneg	float  size(2) Largest target is 0
  1410                           ;!
  1411                           ;!    ?_scale	float  size(2) Largest target is 0
  1412                           ;!
  1413                           ;!    ?_fround	float  size(2) Largest target is 0
  1414                           ;!
  1415                           ;!    ?___ftmul	float  size(2) Largest target is 0
  1416                           ;!
  1417                           ;!    ?___awdiv	int  size(2) Largest target is 0
  1418                           ;!
  1419                           ;!    ?___wmul	unsigned int  size(2) Largest target is 0
  1420                           ;!
  1421                           ;!    ?___awmod	int  size(2) Largest target is 0
  1422                           ;!
  1423                           ;!    ?_strcat	PTR unsigned char  size(2) Largest target is 15
  1424                           ;!		 -> lcd_putsTwoint@crgValue(BANK0[15]), 
  1425                           ;!
  1426                           ;!    __asftsub@f1p	PTR float  size(2) Largest target is 3
  1427                           ;!		 -> sprintf@fval(COMRAM[3]), 
  1428                           ;!
  1429                           ;!    __asftmul@f1p	PTR float  size(2) Largest target is 3
  1430                           ;!		 -> sprintf@integ(COMRAM[3]), 
  1431                           ;!
  1432                           ;!    __asftadd@f1p	PTR float  size(2) Largest target is 3
  1433                           ;!		 -> sprintf@fval(COMRAM[3]), 
  1434                           ;!
  1435                           ;!    strcat@from	PTR const unsigned char  size(2) Largest target is 5
  1436                           ;!		 -> STR_6(CODE[4]), STR_5(CODE[2]), STR_4(CODE[4]), lcd_putsTwoint@crgSecondValue(BA
                                 NK0[5]), 
  1437                           ;!		 -> lcd_putsTwoint@crgFirstValue(BANK0[5]), 
  1438                           ;!
  1439                           ;!    strcat@to	PTR unsigned char  size(2) Largest target is 15
  1440                           ;!		 -> lcd_putsTwoint@crgValue(BANK0[15]), 
  1441                           ;!
  1442                           ;!    strcat@cp	PTR unsigned char  size(2) Largest target is 15
  1443                           ;!		 -> lcd_putsTwoint@crgValue(BANK0[15]), 
  1444                           ;!
  1445                           ;!    sprintf@f	PTR const unsigned char  size(2) Largest target is 3
  1446                           ;!		 -> STR_7(CODE[3]), STR_3(CODE[3]), STR_2(CODE[3]), STR_1(CODE[3]), 
  1447                           ;!
  1448                           ;!    sprintf@sp	PTR unsigned char  size(2) Largest target is 15
  1449                           ;!		 -> lcd_putsfloat@crgValue(COMRAM[15]), lcd_putsTwoint@crgSecondValue(BANK0[5]), lcd
                                 _putsTwoint@crgFirstValue(BANK0[5]), lcd_putsint@crgValue(COMRAM[15]), 
  1450                           ;!
  1451                           ;!    ?_sprintf	int  size(2) Largest target is 0
  1452                           ;!
  1453                           ;!    sprintf@ap	PTR void [1] size(2) Largest target is 2
  1454                           ;!		 -> ?_sprintf(COMRAM[2]), 
  1455                           ;!
  1456                           ;!    S333$_cp	PTR const unsigned char  size(2) Largest target is 0
  1457                           ;!
  1458                           ;!    _val._str._cp	PTR const unsigned char  size(2) Largest target is 0
  1459                           ;!
  1460                           ;!    sp__strcat	PTR unsigned char  size(2) Largest target is 15
  1461                           ;!		 -> lcd_putsTwoint@crgValue(BANK0[15]), 
  1462                           ;!
  1463                           ;!    lcd_putsTwoint@cptrValue	PTR unsigned char  size(2) Largest target is 15
  1464                           ;!		 -> lcd_putsTwoint@crgValue(BANK0[15]), NULL(NULL[0]), 
  1465                           ;!
  1466                           ;!    lcd_puts@s	PTR const unsigned char  size(2) Largest target is 15
  1467                           ;!		 -> lcd_putsfloat@crgValue(COMRAM[15]), lcd_putsTwoint@crgValue(BANK0[15]), lcd_puts
                                 int@crgValue(COMRAM[15]), NULL(NULL[0]), 
  1468                           ;!
  1469                           
  1470                           
  1471                           ;!
  1472                           ;!Critical Paths under _main in COMRAM
  1473                           ;!
  1474                           ;!    _main->_lcd_putsTwoint
  1475                           ;!    _WaitinMilliseconds->_DelayMs
  1476                           ;!    _LcdInitialize_Settings->_lcd_init
  1477                           ;!    _lcd_init->_lcd_cmd
  1478                           ;!    _lcd_cmd->_DelayMs
  1479                           ;!    _lcd_putsTwoint->_sprintf
  1480                           ;!    _lcd_puts->_lcd_data
  1481                           ;!    _lcd_data->_DelayMs
  1482                           ;!    _sprintf->___asftadd
  1483                           ;!    _fround->___ftmul
  1484                           ;!    _scale->___ftmul
  1485                           ;!    ___awdiv->___awmod
  1486                           ;!    ___fttol->___awdiv
  1487                           ;!    ___llmod->___lldiv
  1488                           ;!    ___lltoft->___ftpack
  1489                           ;!    ___asftadd->_fround
  1490                           ;!    ___asftmul->___ftmul
  1491                           ;!    ___ftmul->___fttol
  1492                           ;!    ___asftsub->___ftsub
  1493                           ;!    ___ftsub->___ftadd
  1494                           ;!    ___ftadd->___ftpack
  1495                           ;!
  1496                           ;!Critical Paths under _main in BANK0
  1497                           ;!
  1498                           ;!    _main->_lcd_putsTwoint
  1499                           ;!
  1500                           ;!Critical Paths under _main in BANK1
  1501                           ;!
  1502                           ;!    None.
  1503                           ;!
  1504                           ;!Critical Paths under _main in BANK2
  1505                           ;!
  1506                           ;!    None.
  1507                           ;!
  1508                           ;!Critical Paths under _main in BANK3
  1509                           ;!
  1510                           ;!    None.
  1511                           ;!
  1512                           ;!Critical Paths under _main in BANK4
  1513                           ;!
  1514                           ;!    None.
  1515                           ;!
  1516                           ;!Critical Paths under _main in BANK5
  1517                           ;!
  1518                           ;!    None.
  1519                           
  1520 ;;
  1521 ;;Main: autosize = 0, tempsize = 1, incstack = 0, save=0
  1522 ;;
  1523                           
  1524                           ;!
  1525                           ;!Call Graph Tables:
  1526                           ;!
  1527                           ;! ---------------------------------------------------------------------------------
  1528                           ;! (Depth) Function   	        Calls       Base Space   Used Autos Params    Refs
  1529                           ;! ---------------------------------------------------------------------------------
  1530                           ;! (0) _main                                                 5     5      0   11909
  1531                           ;!                                            112 COMRAM     5     5      0
  1532                           ;!               _MotorDriver_Settings
  1533                           ;!            _Analog2Digital_Settings
  1534                           ;!             _LcdInitialize_Settings
  1535                           ;!                     _lcd_putsTwoint
  1536                           ;!                 _WaitinMilliseconds
  1537                           ;!                            _lcd_cmd
  1538                           ;! ---------------------------------------------------------------------------------
  1539                           ;! (1) _WaitinMilliseconds                                   3     1      2      92
  1540                           ;!                                              4 COMRAM     3     1      2
  1541                           ;!                            _DelayMs
  1542                           ;! ---------------------------------------------------------------------------------
  1543                           ;! (1) _MotorDriver_Settings                                 0     0      0       0
  1544                           ;! ---------------------------------------------------------------------------------
  1545                           ;! (1) _LcdInitialize_Settings                               1     1      0     483
  1546                           ;!                                             10 COMRAM     1     1      0
  1547                           ;!                 _WaitinMicroseconds
  1548                           ;!                           _lcd_init
  1549                           ;!                            _lcd_cmd
  1550                           ;! ---------------------------------------------------------------------------------
  1551                           ;! (2) _WaitinMicroseconds                                   4     2      2      30
  1552                           ;!                                              0 COMRAM     4     2      2
  1553                           ;! ---------------------------------------------------------------------------------
  1554                           ;! (2) _lcd_init                                             4     3      1     318
  1555                           ;!                                              6 COMRAM     4     3      1
  1556                           ;!                            _DelayMs
  1557                           ;!                            _lcd_cmd
  1558                           ;! ---------------------------------------------------------------------------------
  1559                           ;! (1) _lcd_cmd                                              2     1      1     135
  1560                           ;!                                              4 COMRAM     2     1      1
  1561                           ;!                            _DelayMs
  1562                           ;! ---------------------------------------------------------------------------------
  1563                           ;! (1) _Analog2Digital_Settings                              0     0      0       0
  1564                           ;! ---------------------------------------------------------------------------------
  1565                           ;! (1) _lcd_putsTwoint                                      31    27      4   11063
  1566                           ;!                                            108 COMRAM     4     0      4
  1567                           ;!                                              0 BANK0     27    27      0
  1568                           ;!                            _sprintf
  1569                           ;!                             _strcat
  1570                           ;!                           _lcd_puts
  1571                           ;! ---------------------------------------------------------------------------------
  1572                           ;! (2) _lcd_puts                                             2     0      2     180
  1573                           ;!                                              6 COMRAM     2     0      2
  1574                           ;!                           _lcd_data
  1575                           ;! ---------------------------------------------------------------------------------
  1576                           ;! (3) _lcd_data                                             2     1      1     135
  1577                           ;!                                              4 COMRAM     2     1      1
  1578                           ;!                            _DelayMs
  1579                           ;! ---------------------------------------------------------------------------------
  1580                           ;! (2) _DelayMs                                              4     3      1      69
  1581                           ;!                                              0 COMRAM     4     3      1
  1582                           ;! ---------------------------------------------------------------------------------
  1583                           ;! (2) _sprintf                                             46    39      7   10451
  1584                           ;!                                             68 COMRAM    40    33      7
  1585                           ;!                            ___ftneg
  1586                           ;!                             ___wmul
  1587                           ;!                            ___awdiv
  1588                           ;!                              _scale
  1589                           ;!                          ___asftmul
  1590                           ;!                             ___ftge
  1591                           ;!                             _fround
  1592                           ;!                          ___asftadd
  1593                           ;!                            ___fttol
  1594                           ;!                         __div_to_l_
  1595                           ;!                        __tdiv_to_l_
  1596                           ;!                           ___lltoft
  1597                           ;!                          ___asftsub
  1598                           ;!                            ___lldiv
  1599                           ;!                            ___llmod
  1600                           ;!                            ___ftmul
  1601                           ;! ---------------------------------------------------------------------------------
  1602                           ;! (2) _strcat                                               8     4      4      96
  1603                           ;!                                              0 COMRAM     8     4      4
  1604                           ;! ---------------------------------------------------------------------------------
  1605                           ;! (3) _fround                                              18    15      3    1422
  1606                           ;!                                             48 COMRAM    15    12      3
  1607                           ;!                            ___awmod
  1608                           ;!                            ___awdiv
  1609                           ;!                            ___ftmul
  1610                           ;! ---------------------------------------------------------------------------------
  1611                           ;! (3) _scale                                               15    12      3    1620
  1612                           ;!                                             48 COMRAM    12     9      3
  1613                           ;!                            ___awmod
  1614                           ;!                            ___awdiv
  1615                           ;!                            ___ftmul
  1616                           ;!                            ___fttol (ARG)
  1617                           ;! ---------------------------------------------------------------------------------
  1618                           ;! (3) __tdiv_to_l_                                         17    11      6     303
  1619                           ;!                                              0 COMRAM    17    11      6
  1620                           ;! ---------------------------------------------------------------------------------
  1621                           ;! (3) __div_to_l_                                          13     7      6     446
  1622                           ;!                                              0 COMRAM    13     7      6
  1623                           ;! ---------------------------------------------------------------------------------
  1624                           ;! (4) ___awdiv                                              9     5      4     300
  1625                           ;!                                              7 COMRAM     9     5      4
  1626                           ;!                            ___awmod (ARG)
  1627                           ;! ---------------------------------------------------------------------------------
  1628                           ;! (4) ___awmod                                              7     3      4     296
  1629                           ;!                                              0 COMRAM     7     3      4
  1630                           ;! ---------------------------------------------------------------------------------
  1631                           ;! (3) ___ftge                                               9     3      6     136
  1632                           ;!                                              0 COMRAM     9     3      6
  1633                           ;! ---------------------------------------------------------------------------------
  1634                           ;! (3) ___ftneg                                              3     0      3      45
  1635                           ;!                                              0 COMRAM     3     0      3
  1636                           ;! ---------------------------------------------------------------------------------
  1637                           ;! (3) ___fttol                                             15    11      4     252
  1638                           ;!                                             16 COMRAM    15    11      4
  1639                           ;!                           ___ftpack (ARG)
  1640                           ;!                            ___awmod (ARG)
  1641                           ;!                            ___awdiv (ARG)
  1642                           ;! ---------------------------------------------------------------------------------
  1643                           ;! (3) ___lldiv                                             14     6      8     162
  1644                           ;!                                              0 COMRAM    14     6      8
  1645                           ;! ---------------------------------------------------------------------------------
  1646                           ;! (3) ___llmod                                             10     2      8     159
  1647                           ;!                                             14 COMRAM    10     2      8
  1648                           ;!                            ___lldiv (ARG)
  1649                           ;! ---------------------------------------------------------------------------------
  1650                           ;! (3) ___lltoft                                             9     5      4     278
  1651                           ;!                                              8 COMRAM     9     5      4
  1652                           ;!                           ___ftpack
  1653                           ;! ---------------------------------------------------------------------------------
  1654                           ;! (3) ___wmul                                               6     2      4      92
  1655                           ;!                                              0 COMRAM     6     2      4
  1656                           ;! ---------------------------------------------------------------------------------
  1657                           ;! (3) ___asftadd                                            5     0      5    1115
  1658                           ;!                                             63 COMRAM     5     0      5
  1659                           ;!                            ___ftadd
  1660                           ;!                             _fround (ARG)
  1661                           ;! ---------------------------------------------------------------------------------
  1662                           ;! (3) ___asftmul                                            5     0      5     601
  1663                           ;!                                             48 COMRAM     5     0      5
  1664                           ;!                            ___ftmul
  1665                           ;! ---------------------------------------------------------------------------------
  1666                           ;! (3) ___ftmul                                             17    11      6     535
  1667                           ;!                                             31 COMRAM    17    11      6
  1668                           ;!                           ___ftpack
  1669                           ;!                            ___fttol (ARG)
  1670                           ;!                            ___awdiv (ARG)
  1671                           ;!                            ___awmod (ARG)
  1672                           ;! ---------------------------------------------------------------------------------
  1673                           ;! (4) ___ftpack                                             8     3      5     209
  1674                           ;!                                              0 COMRAM     8     3      5
  1675                           ;! ---------------------------------------------------------------------------------
  1676                           ;! (3) ___asftsub                                            5     0      5    1160
  1677                           ;!                                             28 COMRAM     5     0      5
  1678                           ;!                            ___ftsub
  1679                           ;!                           ___lltoft (ARG)
  1680                           ;! ---------------------------------------------------------------------------------
  1681                           ;! (4) ___ftsub                                              6     0      6    1094
  1682                           ;!                                             22 COMRAM     6     0      6
  1683                           ;!                            ___ftadd
  1684                           ;! ---------------------------------------------------------------------------------
  1685                           ;! (5) ___ftadd                                             14     8      6    1049
  1686                           ;!                                              8 COMRAM    14     8      6
  1687                           ;!                           ___ftpack
  1688                           ;! ---------------------------------------------------------------------------------
  1689                           ;! Estimated maximum stack depth 5
  1690                           ;! ---------------------------------------------------------------------------------
  1691                           ;!
  1692                           ;! Call Graph Graphs:
  1693                           ;!
  1694                           ;! _main (ROOT)
  1695                           ;!   _MotorDriver_Settings
  1696                           ;!   _Analog2Digital_Settings
  1697                           ;!   _LcdInitialize_Settings
  1698                           ;!     _WaitinMicroseconds
  1699                           ;!     _lcd_init
  1700                           ;!       _DelayMs
  1701                           ;!       _lcd_cmd
  1702                           ;!         _DelayMs
  1703                           ;!     _lcd_cmd
  1704                           ;!       _DelayMs
  1705                           ;!   _lcd_putsTwoint
  1706                           ;!     _sprintf
  1707                           ;!       ___ftneg
  1708                           ;!       ___wmul
  1709                           ;!       ___awdiv
  1710                           ;!         ___awmod (ARG)
  1711                           ;!       _scale
  1712                           ;!         ___awmod
  1713                           ;!         ___awdiv
  1714                           ;!           ___awmod (ARG)
  1715                           ;!         ___ftmul
  1716                           ;!           ___ftpack
  1717                           ;!           ___fttol (ARG)
  1718                           ;!             ___ftpack (ARG)
  1719                           ;!             ___awmod (ARG)
  1720                           ;!             ___awdiv (ARG)
  1721                           ;!               ___awmod (ARG)
  1722                           ;!           ___awdiv (ARG)
  1723                           ;!             ___awmod (ARG)
  1724                           ;!           ___awmod (ARG)
  1725                           ;!         ___fttol (ARG)
  1726                           ;!           ___ftpack (ARG)
  1727                           ;!           ___awmod (ARG)
  1728                           ;!           ___awdiv (ARG)
  1729                           ;!             ___awmod (ARG)
  1730                           ;!       ___asftmul
  1731                           ;!         ___ftmul
  1732                           ;!           ___ftpack
  1733                           ;!           ___fttol (ARG)
  1734                           ;!             ___ftpack (ARG)
  1735                           ;!             ___awmod (ARG)
  1736                           ;!             ___awdiv (ARG)
  1737                           ;!               ___awmod (ARG)
  1738                           ;!           ___awdiv (ARG)
  1739                           ;!             ___awmod (ARG)
  1740                           ;!           ___awmod (ARG)
  1741                           ;!       ___ftge
  1742                           ;!       _fround
  1743                           ;!         ___awmod
  1744                           ;!         ___awdiv
  1745                           ;!           ___awmod (ARG)
  1746                           ;!         ___ftmul
  1747                           ;!           ___ftpack
  1748                           ;!           ___fttol (ARG)
  1749                           ;!             ___ftpack (ARG)
  1750                           ;!             ___awmod (ARG)
  1751                           ;!             ___awdiv (ARG)
  1752                           ;!               ___awmod (ARG)
  1753                           ;!           ___awdiv (ARG)
  1754                           ;!             ___awmod (ARG)
  1755                           ;!           ___awmod (ARG)
  1756                           ;!       ___asftadd
  1757                           ;!         ___ftadd
  1758                           ;!           ___ftpack
  1759                           ;!         _fround (ARG)
  1760                           ;!           ___awmod
  1761                           ;!           ___awdiv
  1762                           ;!             ___awmod (ARG)
  1763                           ;!           ___ftmul
  1764                           ;!             ___ftpack
  1765                           ;!             ___fttol (ARG)
  1766                           ;!               ___ftpack (ARG)
  1767                           ;!               ___awmod (ARG)
  1768                           ;!               ___awdiv (ARG)
  1769                           ;!                 ___awmod (ARG)
  1770                           ;!             ___awdiv (ARG)
  1771                           ;!               ___awmod (ARG)
  1772                           ;!             ___awmod (ARG)
  1773                           ;!       ___fttol
  1774                           ;!         ___ftpack (ARG)
  1775                           ;!         ___awmod (ARG)
  1776                           ;!         ___awdiv (ARG)
  1777                           ;!           ___awmod (ARG)
  1778                           ;!       __div_to_l_
  1779                           ;!       __tdiv_to_l_
  1780                           ;!       ___lltoft
  1781                           ;!         ___ftpack
  1782                           ;!       ___asftsub
  1783                           ;!         ___ftsub
  1784                           ;!           ___ftadd
  1785                           ;!             ___ftpack
  1786                           ;!         ___lltoft (ARG)
  1787                           ;!           ___ftpack
  1788                           ;!       ___lldiv
  1789                           ;!       ___llmod
  1790                           ;!         ___lldiv (ARG)
  1791                           ;!       ___ftmul
  1792                           ;!         ___ftpack
  1793                           ;!         ___fttol (ARG)
  1794                           ;!           ___ftpack (ARG)
  1795                           ;!           ___awmod (ARG)
  1796                           ;!           ___awdiv (ARG)
  1797                           ;!             ___awmod (ARG)
  1798                           ;!         ___awdiv (ARG)
  1799                           ;!           ___awmod (ARG)
  1800                           ;!         ___awmod (ARG)
  1801                           ;!     _strcat
  1802                           ;!     _lcd_puts
  1803                           ;!       _lcd_data
  1804                           ;!         _DelayMs
  1805                           ;!   _WaitinMilliseconds
  1806                           ;!     _DelayMs
  1807                           ;!   _lcd_cmd
  1808                           ;!     _DelayMs
  1809                           ;!
  1810                           
  1811                           ;! Address spaces:
  1812                           
  1813                           ;!Name               Size   Autos  Total    Cost      Usage
  1814                           ;!BIGRAM             5FF      0       0      17        0.0%
  1815                           ;!EEDATA             100      0       0       0        0.0%
  1816                           ;!BITBANK5           100      0       0      16        0.0%
  1817                           ;!BANK5              100      0       0      14        0.0%
  1818                           ;!BITBANK4           100      0       0      12        0.0%
  1819                           ;!BANK4              100      0       0      13        0.0%
  1820                           ;!BITBANK3           100      0       0      10        0.0%
  1821                           ;!BANK3              100      0       0      11        0.0%
  1822                           ;!BITBANK2           100      0       0       8        0.0%
  1823                           ;!BANK2              100      0       0       9        0.0%
  1824                           ;!BITBANK1           100      0       0       6        0.0%
  1825                           ;!BANK1              100      0       0       7        0.0%
  1826                           ;!BITBANK0            80      0       0       4        0.0%
  1827                           ;!BANK0               80     1B      2A       5       32.8%
  1828                           ;!BITCOMRAM           7F      0       1       0        0.8%
  1829                           ;!COMRAM              7F     75      76       1       92.9%
  1830                           ;!BITSFR               0      0       0      40        0.0%
  1831                           ;!SFR                  0      0       0      40        0.0%
  1832                           ;!STACK                0      0       6       2        0.0%
  1833                           ;!NULL                 0      0       0       0        0.0%
  1834                           ;!ABS                  0      0      A0      15        0.0%
  1835                           ;!DATA                 0      0      A6       3        0.0%
  1836                           ;!CODE                 0      0       0       0        0.0%
  1837                           
  1838                           	global	_main
  1839                           
  1840 ;; *************** function _main *****************
  1841 ;; Defined at:
  1842 ;;		line 83 in file "newmain.c"
  1843 ;; Parameters:    Size  Location     Type
  1844 ;;		None
  1845 ;; Auto vars:     Size  Location     Type
  1846 ;;  iRightVolt      2  115[COMRAM] unsigned int 
  1847 ;;  iLeftVolt       2  113[COMRAM] unsigned int 
  1848 ;; Return value:  Size  Location     Type
  1849 ;;		None               void
  1850 ;; Registers used:
  1851 ;;		wreg, fsr0l, fsr0h, fsr1l, fsr1h, fsr2l, fsr2h, status,2, status,0, tblptrl, tblptrh, tblptru, prodl, prodh, cstack
  1852 ;; Tracked objects:
  1853 ;;		On entry : 0/0
  1854 ;;		On exit  : 0/0
  1855 ;;		Unchanged: 0/0
  1856 ;; Data sizes:     COMRAM   BANK0   BANK1   BANK2   BANK3   BANK4   BANK5
  1857 ;;      Params:         0       0       0       0       0       0       0
  1858 ;;      Locals:         4       0       0       0       0       0       0
  1859 ;;      Temps:          1       0       0       0       0       0       0
  1860 ;;      Totals:         5       0       0       0       0       0       0
  1861 ;;Total ram usage:        5 bytes
  1862 ;; Hardware stack levels required when called:    6
  1863 ;; This function calls:
  1864 ;;		_MotorDriver_Settings
  1865 ;;		_Analog2Digital_Settings
  1866 ;;		_LcdInitialize_Settings
  1867 ;;		_lcd_putsTwoint
  1868 ;;		_WaitinMilliseconds
  1869 ;;		_lcd_cmd
  1870 ;; This function is called by:
  1871 ;;		Startup code after reset
  1872 ;; This function uses a non-reentrant model
  1873 ;;
  1874                           psect	text0,class=CODE,space=0,reloc=2
  1875                           global __ptext0
  1876  002040                     __ptext0:
  1877                           psect	text0
  1878                           	file	"newmain.c"
  1879                           	line	83
  1880                           	global	__size_of_main
  1881  0000                     	__size_of_main	equ	__end_of_main-_main
  1882                           	
  1883  002040                     _main:
  1884                           	opt	stack 25
  1885  002040  FFFF               	dw	0FFFFh
  1886                           	line	84
  1887                           	
  1888  002042                     l4825:
  1889                           ;newmain.c: 84: unsigned int iLeftVolt = 0x00, iRightVolt = 0x00;
  1890  002042  0E00               	movlw	high(0)
  1891  002044  6E73               	movwf	((c:main@iLeftVolt+1)),c
  1892  002046  0E00               	movlw	low(0)
  1893  002048  6E72               	movwf	((c:main@iLeftVolt)),c
  1894  00204A  0E00               	movlw	high(0)
  1895  00204C  6E75               	movwf	((c:main@iRightVolt+1)),c
  1896  00204E  0E00               	movlw	low(0)
  1897  002050  6E74               	movwf	((c:main@iRightVolt)),c
  1898                           	line	85
  1899                           	
  1900  002052                     l4827:
  1901                           ;newmain.c: 85: MotorDriver_Settings();
  1902  002052  ECDF  F013         	call	_MotorDriver_Settings	;wreg free
  1903                           	line	86
  1904                           	
  1905  002056                     l4829:
  1906                           ;newmain.c: 86: Analog2Digital_Settings();
  1907  002056  EC60  F014         	call	_Analog2Digital_Settings	;wreg free
  1908                           	line	87
  1909                           	
  1910  00205A                     l4831:
  1911                           ;newmain.c: 87: LcdInitialize_Settings();
  1912  00205A  EC3F  F014         	call	_LcdInitialize_Settings	;wreg free
  1913  00205E  D000               	goto	l4833
  1914                           	line	88
  1915                           ;newmain.c: 88: for (;;) {
  1916                           	
  1917  002060                     l96:
  1918                           	line	89
  1919                           	
  1920  002060                     l4833:
  1921                           ;newmain.c: 89: ADCON0bits.CHS0 = 0;
  1922  002060  96C2               	bcf	((c:4034)),c,3	;volatile
  1923                           	line	90
  1924                           	
  1925  002062                     l4835:
  1926                           ;newmain.c: 90: ADCON0bits.CHS1 = 0;
  1927  002062  98C2               	bcf	((c:4034)),c,4	;volatile
  1928                           	line	91
  1929                           	
  1930  002064                     l4837:
  1931                           ;newmain.c: 91: ADCON0bits.CHS2 = 0;
  1932  002064  9AC2               	bcf	((c:4034)),c,5	;volatile
  1933                           	line	92
  1934                           	
  1935  002066                     l4839:
  1936                           ;newmain.c: 92: ADCON0bits.ADON = 1;
  1937  002066  80C2               	bsf	((c:4034)),c,0	;volatile
  1938                           	line	93
  1939                           	
  1940  002068                     l4841:
  1941                           ;newmain.c: 93: ADCON0bits.GO = 1;
  1942  002068  84C2               	bsf	((c:4034)),c,2	;volatile
  1943                           	line	94
  1944                           ;newmain.c: 94: while (ADCON0bits.GO);
  1945  00206A  D000               	goto	l97
  1946                           	
  1947  00206C                     l98:
  1948                           	
  1949  00206C                     l97:
  1950                           	
  1951  00206C  B4C2               	btfsc	((c:4034)),c,2	;volatile
  1952  00206E  D001               	goto	u4011
  1953  002070  D001               	goto	u4010
  1954  002072                     u4011:
  1955  002072  D7FC               	goto	l97
  1956  002074                     u4010:
  1957                           	
  1958  002074                     l99:
  1959                           	line	95
  1960                           ;newmain.c: 95: ADCON1bits.ADFM = 0;
  1961  002074  9EC1               	bcf	((c:4033)),c,7	;volatile
  1962                           	line	96
  1963                           ;newmain.c: 96: iLeftVolt = ADRESH;
  1964  002076  CFC4 F072          	movff	(c:4036),(c:main@iLeftVolt)	;volatile
  1965  00207A  6A73               	clrf	((c:main@iLeftVolt+1)),c
  1966                           	line	98
  1967                           	
  1968  00207C                     l4843:
  1969                           ;newmain.c: 98: lcd_putsTwoint(iLeftVolt, iRightVolt);
  1970  00207C  C072  F06D         	movff	(c:main@iLeftVolt),(c:?_lcd_putsTwoint)
  1971  002080  C073  F06E         	movff	(c:main@iLeftVolt+1),(c:?_lcd_putsTwoint+1)
  1972  002084  C074  F06F         	movff	(c:main@iRightVolt),0+((c:?_lcd_putsTwoint)+02h)
  1973  002088  C075  F070         	movff	(c:main@iRightVolt+1),1+((c:?_lcd_putsTwoint)+02h)
  1974  00208C  ECA5  F00E         	call	_lcd_putsTwoint	;wreg free
  1975                           	line	99
  1976                           	
  1977  002090                     l4845:
  1978                           ;newmain.c: 99: WaitinMilliseconds(100000);
  1979  002090  0E86               	movlw	high(086A0h)
  1980  002092  6E06               	movwf	((c:?_WaitinMilliseconds+1)),c
  1981  002094  0EA0               	movlw	low(086A0h)
  1982  002096  6E05               	movwf	((c:?_WaitinMilliseconds)),c
  1983  002098  EC2A  F014         	call	_WaitinMilliseconds	;wreg free
  1984                           	line	100
  1985                           	
  1986  00209C                     l4847:
  1987                           ;newmain.c: 100: lcd_cmd(0x1);
  1988  00209C  6E71               	movwf	(??_main+0+0)&0ffh,c
  1989  00209E  0E01               	movlw	low(01h)
  1990  0020A0  6E05               	movwf	((c:?_lcd_cmd)),c
  1991  0020A2  5071               	movf	(??_main+0+0)&0ffh,c,w
  1992  0020A4  ECF9  F012         	call	_lcd_cmd	;wreg free
  1993                           	line	101
  1994                           	
  1995  0020A8                     l4849:
  1996                           ;newmain.c: 101: if (iLeftVolt > 200) {
  1997  0020A8  0EC9               	movlw	0C9h
  1998  0020AA  5C72               	subwf	((c:main@iLeftVolt)),c,w
  1999  0020AC  0E00               	movlw	0
  2000  0020AE  5873               	subwfb	((c:main@iLeftVolt+1)),c,w
  2001  0020B0  A0D8               	btfss	status,0
  2002  0020B2  D001               	goto	u4021
  2003  0020B4  D001               	goto	u4020
  2004  0020B6                     u4021:
  2005  0020B6  D003               	goto	l100
  2006  0020B8                     u4020:
  2007                           	line	102
  2008                           	
  2009  0020B8                     l4851:
  2010                           ;newmain.c: 102: RB4 = 0;
  2011  0020B8  9881               	bcf	c:(31756/8),(31756)&7	;volatile
  2012                           	line	103
  2013                           ;newmain.c: 103: RB5 = 1;
  2014  0020BA  8A81               	bsf	c:(31757/8),(31757)&7	;volatile
  2015                           	line	104
  2016                           ;newmain.c: 104: } else {
  2017  0020BC  D002               	goto	l101
  2018                           	
  2019  0020BE                     l100:
  2020                           	line	105
  2021                           ;newmain.c: 105: RB4 = 0;
  2022  0020BE  9881               	bcf	c:(31756/8),(31756)&7	;volatile
  2023                           	line	106
  2024                           ;newmain.c: 106: RB5 = 0;
  2025  0020C0  9A81               	bcf	c:(31757/8),(31757)&7	;volatile
  2026                           	line	107
  2027                           	
  2028  0020C2                     l101:
  2029                           	line	108
  2030                           ;newmain.c: 107: }
  2031                           ;newmain.c: 108: ADCON0bits.CHS0 = 1;
  2032  0020C2  86C2               	bsf	((c:4034)),c,3	;volatile
  2033                           	line	109
  2034                           ;newmain.c: 109: ADCON0bits.CHS1 = 0;
  2035  0020C4  98C2               	bcf	((c:4034)),c,4	;volatile
  2036                           	line	110
  2037                           ;newmain.c: 110: ADCON0bits.CHS2 = 0;
  2038  0020C6  9AC2               	bcf	((c:4034)),c,5	;volatile
  2039                           	line	111
  2040                           ;newmain.c: 111: ADCON0bits.ADON = 1;
  2041  0020C8  80C2               	bsf	((c:4034)),c,0	;volatile
  2042                           	line	112
  2043                           ;newmain.c: 112: ADCON0bits.GO = 1;
  2044  0020CA  84C2               	bsf	((c:4034)),c,2	;volatile
  2045                           	line	113
  2046                           ;newmain.c: 113: while (ADCON0bits.GO);
  2047  0020CC  D000               	goto	l102
  2048                           	
  2049  0020CE                     l103:
  2050                           	
  2051  0020CE                     l102:
  2052                           	
  2053  0020CE  B4C2               	btfsc	((c:4034)),c,2	;volatile
  2054  0020D0  D001               	goto	u4031
  2055  0020D2  D001               	goto	u4030
  2056  0020D4                     u4031:
  2057  0020D4  D7FC               	goto	l102
  2058  0020D6                     u4030:
  2059                           	
  2060  0020D6                     l104:
  2061                           	line	114
  2062                           ;newmain.c: 114: ADCON1bits.ADFM = 0;
  2063  0020D6  9EC1               	bcf	((c:4033)),c,7	;volatile
  2064                           	line	115
  2065                           ;newmain.c: 115: iRightVolt = ADRESH;
  2066  0020D8  CFC4 F074          	movff	(c:4036),(c:main@iRightVolt)	;volatile
  2067  0020DC  6A75               	clrf	((c:main@iRightVolt+1)),c
  2068                           	line	117
  2069                           	
  2070  0020DE                     l4853:
  2071                           ;newmain.c: 117: lcd_putsTwoint(iLeftVolt, iRightVolt);
  2072  0020DE  C072  F06D         	movff	(c:main@iLeftVolt),(c:?_lcd_putsTwoint)
  2073  0020E2  C073  F06E         	movff	(c:main@iLeftVolt+1),(c:?_lcd_putsTwoint+1)
  2074  0020E6  C074  F06F         	movff	(c:main@iRightVolt),0+((c:?_lcd_putsTwoint)+02h)
  2075  0020EA  C075  F070         	movff	(c:main@iRightVolt+1),1+((c:?_lcd_putsTwoint)+02h)
  2076  0020EE  ECA5  F00E         	call	_lcd_putsTwoint	;wreg free
  2077                           	line	118
  2078                           	
  2079  0020F2                     l4855:
  2080                           ;newmain.c: 118: WaitinMilliseconds(100000);
  2081  0020F2  0E86               	movlw	high(086A0h)
  2082  0020F4  6E06               	movwf	((c:?_WaitinMilliseconds+1)),c
  2083  0020F6  0EA0               	movlw	low(086A0h)
  2084  0020F8  6E05               	movwf	((c:?_WaitinMilliseconds)),c
  2085  0020FA  EC2A  F014         	call	_WaitinMilliseconds	;wreg free
  2086                           	line	119
  2087                           	
  2088  0020FE                     l4857:
  2089                           ;newmain.c: 119: lcd_cmd(0x1);
  2090  0020FE  6E71               	movwf	(??_main+0+0)&0ffh,c
  2091  002100  0E01               	movlw	low(01h)
  2092  002102  6E05               	movwf	((c:?_lcd_cmd)),c
  2093  002104  5071               	movf	(??_main+0+0)&0ffh,c,w
  2094  002106  ECF9  F012         	call	_lcd_cmd	;wreg free
  2095                           	line	120
  2096                           	
  2097  00210A                     l4859:
  2098                           ;newmain.c: 120: if (iRightVolt > 200) {
  2099  00210A  0EC9               	movlw	0C9h
  2100  00210C  5C74               	subwf	((c:main@iRightVolt)),c,w
  2101  00210E  0E00               	movlw	0
  2102  002110  5875               	subwfb	((c:main@iRightVolt+1)),c,w
  2103  002112  A0D8               	btfss	status,0
  2104  002114  D001               	goto	u4041
  2105  002116  D001               	goto	u4040
  2106  002118                     u4041:
  2107  002118  D003               	goto	l105
  2108  00211A                     u4040:
  2109                           	line	121
  2110                           	
  2111  00211A                     l4861:
  2112                           ;newmain.c: 121: RB6 = 1;
  2113  00211A  8C81               	bsf	c:(31758/8),(31758)&7	;volatile
  2114                           	line	122
  2115                           ;newmain.c: 122: RB7 = 0;
  2116  00211C  9E81               	bcf	c:(31759/8),(31759)&7	;volatile
  2117                           	line	123
  2118                           ;newmain.c: 123: } else {
  2119  00211E  D7A0               	goto	l4833
  2120                           	
  2121  002120                     l105:
  2122                           	line	124
  2123                           ;newmain.c: 124: RB6 = 0;
  2124  002120  9C81               	bcf	c:(31758/8),(31758)&7	;volatile
  2125                           	line	125
  2126                           ;newmain.c: 125: RB7 = 0;
  2127  002122  9E81               	bcf	c:(31759/8),(31759)&7	;volatile
  2128  002124  D79D               	goto	l4833
  2129                           	line	126
  2130                           	
  2131  002126                     l106:
  2132                           	line	127
  2133                           ;newmain.c: 126: }
  2134                           ;newmain.c: 127: }
  2135  002126  D79C               	goto	l4833
  2136                           	
  2137  002128                     l107:
  2138                           	line	128
  2139                           	
  2140  002128                     l108:
  2141                           	global	start
  2142  002128  EF00  F000         	goto	start
  2143                           	opt stack 0
  2144                           GLOBAL	__end_of_main
  2145  00212C                     	__end_of_main:
  2146                           	signat	_main,88
  2147                           	global	_WaitinMilliseconds
  2148                           
  2149 ;; *************** function _WaitinMilliseconds *****************
  2150 ;; Defined at:
  2151 ;;		line 28 in file "newmain.c"
  2152 ;; Parameters:    Size  Location     Type
  2153 ;;  delay           2    4[COMRAM] unsigned int 
  2154 ;; Auto vars:     Size  Location     Type
  2155 ;;		None
  2156 ;; Return value:  Size  Location     Type
  2157 ;;		None               void
  2158 ;; Registers used:
  2159 ;;		wreg, status,2, status,0, cstack
  2160 ;; Tracked objects:
  2161 ;;		On entry : 0/0
  2162 ;;		On exit  : 0/0
  2163 ;;		Unchanged: 0/0
  2164 ;; Data sizes:     COMRAM   BANK0   BANK1   BANK2   BANK3   BANK4   BANK5
  2165 ;;      Params:         2       0       0       0       0       0       0
  2166 ;;      Locals:         0       0       0       0       0       0       0
  2167 ;;      Temps:          1       0       0       0       0       0       0
  2168 ;;      Totals:         3       0       0       0       0       0       0
  2169 ;;Total ram usage:        3 bytes
  2170 ;; Hardware stack levels used:    1
  2171 ;; Hardware stack levels required when called:    1
  2172 ;; This function calls:
  2173 ;;		_DelayMs
  2174 ;; This function is called by:
  2175 ;;		_main
  2176 ;; This function uses a non-reentrant model
  2177 ;;
  2178                           psect	text1,class=CODE,space=0,reloc=2
  2179                           global __ptext1
  2180  002854                     __ptext1:
  2181                           psect	text1
  2182                           	file	"newmain.c"
  2183                           	line	28
  2184                           	global	__size_of_WaitinMilliseconds
  2185  0000                     	__size_of_WaitinMilliseconds	equ	__end_of_WaitinMilliseconds-_WaitinMilliseconds
  2186                           	
  2187  002854                     _WaitinMilliseconds:
  2188                           	opt	stack 29
  2189  002854  FFFF               	dw	0FFFFh
  2190                           	line	29
  2191                           	
  2192  002856                     l4153:
  2193                           ;newmain.c: 29: for (; delay; delay--);
  2194  002856  D004               	goto	l4157
  2195                           	
  2196  002858                     l75:
  2197                           	
  2198  002858                     l4155:
  2199  002858  0605               	decf	((c:WaitinMilliseconds@delay)),c
  2200  00285A  A0D8               	btfss	status,0
  2201  00285C  0606               	decf	((c:WaitinMilliseconds@delay+1)),c
  2202  00285E  D000               	goto	l4157
  2203                           	
  2204  002860                     l74:
  2205                           	
  2206  002860                     l4157:
  2207  002860  5006               	movf	((c:WaitinMilliseconds@delay+1)),c,w
  2208  002862  1005               	iorwf ((c:WaitinMilliseconds@delay)),c,w
  2209                           
  2210  002864  A4D8               	btfss	status,2
  2211  002866  D001               	goto	u3111
  2212  002868  D001               	goto	u3110
  2213  00286A                     u3111:
  2214  00286A  D7F6               	goto	l4155
  2215  00286C                     u3110:
  2216  00286C  D000               	goto	l4159
  2217                           	
  2218  00286E                     l76:
  2219                           	line	30
  2220                           	
  2221  00286E                     l4159:
  2222                           ;newmain.c: 30: DelayMs(100);
  2223  00286E  6E07               	movwf	(??_WaitinMilliseconds+0+0)&0ffh,c
  2224  002870  0E64               	movlw	low(064h)
  2225  002872  6E01               	movwf	((c:?_DelayMs)),c
  2226  002874  5007               	movf	(??_WaitinMilliseconds+0+0)&0ffh,c,w
  2227  002876  ECD0  F012         	call	_DelayMs	;wreg free
  2228                           	line	31
  2229                           	
  2230  00287A                     l77:
  2231  00287A  0012               	return
  2232  00287C  FFFF               	dw	0FFFFh; errata NOP
  2233                           	opt stack 0
  2234                           GLOBAL	__end_of_WaitinMilliseconds
  2235  00287E                     	__end_of_WaitinMilliseconds:
  2236                           	signat	_WaitinMilliseconds,4216
  2237                           	global	_MotorDriver_Settings
  2238                           
  2239 ;; *************** function _MotorDriver_Settings *****************
  2240 ;; Defined at:
  2241 ;;		line 39 in file "newmain.c"
  2242 ;; Parameters:    Size  Location     Type
  2243 ;;		None
  2244 ;; Auto vars:     Size  Location     Type
  2245 ;;		None
  2246 ;; Return value:  Size  Location     Type
  2247 ;;		None               void
  2248 ;; Registers used:
  2249 ;;		wreg, status,2, status,0
  2250 ;; Tracked objects:
  2251 ;;		On entry : 0/0
  2252 ;;		On exit  : 0/0
  2253 ;;		Unchanged: 0/0
  2254 ;; Data sizes:     COMRAM   BANK0   BANK1   BANK2   BANK3   BANK4   BANK5
  2255 ;;      Params:         0       0       0       0       0       0       0
  2256 ;;      Locals:         0       0       0       0       0       0       0
  2257 ;;      Temps:          0       0       0       0       0       0       0
  2258 ;;      Totals:         0       0       0       0       0       0       0
  2259 ;;Total ram usage:        0 bytes
  2260 ;; Hardware stack levels used:    1
  2261 ;; This function calls:
  2262 ;;		Nothing
  2263 ;; This function is called by:
  2264 ;;		_main
  2265 ;; This function uses a non-reentrant model
  2266 ;;
  2267                           psect	text2,class=CODE,space=0,reloc=2
  2268                           global __ptext2
  2269  0027BE                     __ptext2:
  2270                           psect	text2
  2271                           	file	"newmain.c"
  2272                           	line	39
  2273                           	global	__size_of_MotorDriver_Settings
  2274  0000                     	__size_of_MotorDriver_Settings	equ	__end_of_MotorDriver_Settings-_MotorDriver_Settings
  2275                           	
  2276  0027BE                     _MotorDriver_Settings:
  2277                           	opt	stack 30
  2278  0027BE  FFFF               	dw	0FFFFh
  2279                           	line	44
  2280                           	
  2281  0027C0                     l1863:
  2282                           ;newmain.c: 44: TRISC1 = 0;
  2283  0027C0  9294               	bcf	c:(31905/8),(31905)&7	;volatile
  2284                           	line	45
  2285                           ;newmain.c: 45: TRISC2 = 0;
  2286  0027C2  9494               	bcf	c:(31906/8),(31906)&7	;volatile
  2287                           	line	46
  2288                           	
  2289  0027C4                     l1865:
  2290                           ;newmain.c: 46: PR2 = 0x01;
  2291  0027C4  0E01               	movlw	low(01h)
  2292  0027C6  6ECB               	movwf	((c:4043)),c	;volatile
  2293                           	line	47
  2294                           ;newmain.c: 47: TMR2 = 0x01;
  2295  0027C8  0E01               	movlw	low(01h)
  2296  0027CA  6ECC               	movwf	((c:4044)),c	;volatile
  2297                           	line	48
  2298                           	
  2299  0027CC                     l1867:
  2300                           ;newmain.c: 48: CCPR2L = 0xFF;
  2301  0027CC  68BB               	setf	((c:4027)),c	;volatile
  2302                           	line	49
  2303                           	
  2304  0027CE                     l1869:
  2305                           ;newmain.c: 49: CCPR1L = 0xFF;
  2306  0027CE  68BE               	setf	((c:4030)),c	;volatile
  2307                           	line	50
  2308                           	
  2309  0027D0                     l1871:
  2310                           ;newmain.c: 50: CCP2X = 0;
  2311  0027D0  9ABA               	bcf	c:(32213/8),(32213)&7	;volatile
  2312                           	line	51
  2313                           	
  2314  0027D2                     l1873:
  2315                           ;newmain.c: 51: CCP2Y = 1;
  2316  0027D2  88BA               	bsf	c:(32212/8),(32212)&7	;volatile
  2317                           	line	52
  2318                           	
  2319  0027D4                     l1875:
  2320                           ;newmain.c: 52: CCP1X = 0;
  2321  0027D4  9ABD               	bcf	c:(32237/8),(32237)&7	;volatile
  2322                           	line	53
  2323                           	
  2324  0027D6                     l1877:
  2325                           ;newmain.c: 53: CCP1Y = 1;
  2326  0027D6  88BD               	bsf	c:(32236/8),(32236)&7	;volatile
  2327                           	line	54
  2328                           ;newmain.c: 54: T2CON = 0x04;
  2329  0027D8  0E04               	movlw	low(04h)
  2330  0027DA  6ECA               	movwf	((c:4042)),c	;volatile
  2331                           	line	55
  2332                           	
  2333  0027DC                     l1879:
  2334                           ;newmain.c: 55: CCP2CON = CCP2CON | 0x0c;
  2335  0027DC  50BA               	movf	((c:4026)),c,w	;volatile
  2336  0027DE  090C               	iorlw	low(0Ch)
  2337  0027E0  6EBA               	movwf	((c:4026)),c	;volatile
  2338                           	line	56
  2339                           	
  2340  0027E2                     l1881:
  2341                           ;newmain.c: 56: CCP1CON = CCP1CON | 0x0c;
  2342  0027E2  50BD               	movf	((c:4029)),c,w	;volatile
  2343  0027E4  090C               	iorlw	low(0Ch)
  2344  0027E6  6EBD               	movwf	((c:4029)),c	;volatile
  2345                           	line	58
  2346                           	
  2347  0027E8                     l1883:
  2348                           ;newmain.c: 58: TRISB4 = 0;
  2349  0027E8  9893               	bcf	c:(31900/8),(31900)&7	;volatile
  2350                           	line	59
  2351                           	
  2352  0027EA                     l1885:
  2353                           ;newmain.c: 59: TRISB5 = 0;
  2354  0027EA  9A93               	bcf	c:(31901/8),(31901)&7	;volatile
  2355                           	line	61
  2356                           	
  2357  0027EC                     l1887:
  2358                           ;newmain.c: 61: TRISB6 = 0;
  2359  0027EC  9C93               	bcf	c:(31902/8),(31902)&7	;volatile
  2360                           	line	62
  2361                           	
  2362  0027EE                     l1889:
  2363                           ;newmain.c: 62: TRISB7 = 0;
  2364  0027EE  9E93               	bcf	c:(31903/8),(31903)&7	;volatile
  2365                           	line	63
  2366                           	
  2367  0027F0                     l87:
  2368  0027F0  0012               	return
  2369  0027F2  FFFF               	dw	0FFFFh; errata NOP
  2370                           	opt stack 0
  2371                           GLOBAL	__end_of_MotorDriver_Settings
  2372  0027F4                     	__end_of_MotorDriver_Settings:
  2373                           	signat	_MotorDriver_Settings,88
  2374                           	global	_LcdInitialize_Settings
  2375                           
  2376 ;; *************** function _LcdInitialize_Settings *****************
  2377 ;; Defined at:
  2378 ;;		line 65 in file "newmain.c"
  2379 ;; Parameters:    Size  Location     Type
  2380 ;;		None
  2381 ;; Auto vars:     Size  Location     Type
  2382 ;;		None
  2383 ;; Return value:  Size  Location     Type
  2384 ;;		None               void
  2385 ;; Registers used:
  2386 ;;		wreg, status,2, status,0, cstack
  2387 ;; Tracked objects:
  2388 ;;		On entry : 0/0
  2389 ;;		On exit  : 0/0
  2390 ;;		Unchanged: 0/0
  2391 ;; Data sizes:     COMRAM   BANK0   BANK1   BANK2   BANK3   BANK4   BANK5
  2392 ;;      Params:         0       0       0       0       0       0       0
  2393 ;;      Locals:         0       0       0       0       0       0       0
  2394 ;;      Temps:          1       0       0       0       0       0       0
  2395 ;;      Totals:         1       0       0       0       0       0       0
  2396 ;;Total ram usage:        1 bytes
  2397 ;; Hardware stack levels used:    1
  2398 ;; Hardware stack levels required when called:    3
  2399 ;; This function calls:
  2400 ;;		_WaitinMicroseconds
  2401 ;;		_lcd_init
  2402 ;;		_lcd_cmd
  2403 ;; This function is called by:
  2404 ;;		_main
  2405 ;; This function uses a non-reentrant model
  2406 ;;
  2407                           psect	text3,class=CODE,space=0,reloc=2
  2408                           global __ptext3
  2409  00287E                     __ptext3:
  2410                           psect	text3
  2411                           	file	"newmain.c"
  2412                           	line	65
  2413                           	global	__size_of_LcdInitialize_Settings
  2414  0000                     	__size_of_LcdInitialize_Settings	equ	__end_of_LcdInitialize_Settings-_LcdInitialize_Set
                                 tings
  2415                           	
  2416  00287E                     _LcdInitialize_Settings:
  2417                           	opt	stack 27
  2418  00287E  FFFF               	dw	0FFFFh
  2419                           	line	67
  2420                           	
  2421  002880                     l4593:
  2422                           ;newmain.c: 67: WaitinMicroseconds(100);
  2423  002880  0E00               	movlw	high(064h)
  2424  002882  6E02               	movwf	((c:?_WaitinMicroseconds+1)),c
  2425  002884  0E64               	movlw	low(064h)
  2426  002886  6E01               	movwf	((c:?_WaitinMicroseconds)),c
  2427  002888  ECA2  F013         	call	_WaitinMicroseconds	;wreg free
  2428                           	line	68
  2429                           ;newmain.c: 68: lcd_init(0x0);
  2430  00288C  6E0B               	movwf	(??_LcdInitialize_Settings+0+0)&0ffh,c
  2431  00288E  0E00               	movlw	low(0)
  2432  002890  6E07               	movwf	((c:?_lcd_init)),c
  2433  002892  500B               	movf	(??_LcdInitialize_Settings+0+0)&0ffh,c,w
  2434  002894  EC27  F00F         	call	_lcd_init	;wreg free
  2435                           	line	69
  2436                           ;newmain.c: 69: lcd_cmd(0x1);
  2437  002898  6E0B               	movwf	(??_LcdInitialize_Settings+0+0)&0ffh,c
  2438  00289A  0E01               	movlw	low(01h)
  2439  00289C  6E05               	movwf	((c:?_lcd_cmd)),c
  2440  00289E  500B               	movf	(??_LcdInitialize_Settings+0+0)&0ffh,c,w
  2441  0028A0  ECF9  F012         	call	_lcd_cmd	;wreg free
  2442                           	line	70
  2443                           	
  2444  0028A4                     l90:
  2445  0028A4  0012               	return
  2446  0028A6  FFFF               	dw	0FFFFh; errata NOP
  2447                           	opt stack 0
  2448                           GLOBAL	__end_of_LcdInitialize_Settings
  2449  0028A8                     	__end_of_LcdInitialize_Settings:
  2450                           	signat	_LcdInitialize_Settings,88
  2451                           	global	_WaitinMicroseconds
  2452                           
  2453 ;; *************** function _WaitinMicroseconds *****************
  2454 ;; Defined at:
  2455 ;;		line 23 in file "newmain.c"
  2456 ;; Parameters:    Size  Location     Type
  2457 ;;  delay           2    0[COMRAM] unsigned int 
  2458 ;; Auto vars:     Size  Location     Type
  2459 ;;  _dcnt           1    3[COMRAM] unsigned char 
  2460 ;; Return value:  Size  Location     Type
  2461 ;;		None               void
  2462 ;; Registers used:
  2463 ;;		wreg, status,2, status,0
  2464 ;; Tracked objects:
  2465 ;;		On entry : 0/0
  2466 ;;		On exit  : 0/0
  2467 ;;		Unchanged: 0/0
  2468 ;; Data sizes:     COMRAM   BANK0   BANK1   BANK2   BANK3   BANK4   BANK5
  2469 ;;      Params:         2       0       0       0       0       0       0
  2470 ;;      Locals:         1       0       0       0       0       0       0
  2471 ;;      Temps:          1       0       0       0       0       0       0
  2472 ;;      Totals:         4       0       0       0       0       0       0
  2473 ;;Total ram usage:        4 bytes
  2474 ;; Hardware stack levels used:    1
  2475 ;; This function calls:
  2476 ;;		Nothing
  2477 ;; This function is called by:
  2478 ;;		_LcdInitialize_Settings
  2479 ;; This function uses a non-reentrant model
  2480 ;;
  2481                           psect	text4,class=CODE,space=0,reloc=2
  2482                           global __ptext4
  2483  002744                     __ptext4:
  2484                           psect	text4
  2485                           	file	"newmain.c"
  2486                           	line	23
  2487                           	global	__size_of_WaitinMicroseconds
  2488  0000                     	__size_of_WaitinMicroseconds	equ	__end_of_WaitinMicroseconds-_WaitinMicroseconds
  2489                           	
  2490  002744                     _WaitinMicroseconds:
  2491                           	opt	stack 29
  2492  002744  FFFF               	dw	0FFFFh
  2493                           	line	24
  2494                           	
  2495  002746                     l1827:
  2496                           ;newmain.c: 24: for (; delay; delay--);
  2497  002746  D004               	goto	l1831
  2498                           	
  2499  002748                     l64:
  2500                           	
  2501  002748                     l1829:
  2502  002748  0601               	decf	((c:WaitinMicroseconds@delay)),c
  2503  00274A  A0D8               	btfss	status,0
  2504  00274C  0602               	decf	((c:WaitinMicroseconds@delay+1)),c
  2505  00274E  D000               	goto	l1831
  2506                           	
  2507  002750                     l63:
  2508                           	
  2509  002750                     l1831:
  2510  002750  5002               	movf	((c:WaitinMicroseconds@delay+1)),c,w
  2511  002752  1001               	iorwf ((c:WaitinMicroseconds@delay)),c,w
  2512                           
  2513  002754  A4D8               	btfss	status,2
  2514  002756  D001               	goto	u11
  2515  002758  D001               	goto	u10
  2516  00275A                     u11:
  2517  00275A  D7F6               	goto	l1829
  2518  00275C                     u10:
  2519  00275C  D000               	goto	l1833
  2520                           ;newmain.c: 25: { unsigned char _dcnt; if(100>=4) _dcnt=(100*((4*1)/(4*1))/2); else _dcn
                                 t=1; while(--_dcnt > 0) { asm("nop"); asm("nop"); continue; } };
  2521                           	
  2522  00275E                     l65:
  2523                           	line	25
  2524                           	
  2525  00275E                     l1833:
  2526  00275E  6E03               	movwf	(??_WaitinMicroseconds+0+0)&0ffh,c
  2527  002760  0E32               	movlw	low(032h)
  2528  002762  6E04               	movwf	((c:WaitinMicroseconds@_dcnt)),c
  2529  002764  5003               	movf	(??_WaitinMicroseconds+0+0)&0ffh,c,w
  2530  002766  D008               	goto	l68
  2531                           	
  2532  002768                     l66:
  2533                           	
  2534  002768                     l1835:
  2535  002768  6E03               	movwf	(??_WaitinMicroseconds+0+0)&0ffh,c
  2536  00276A  0E01               	movlw	low(01h)
  2537  00276C  6E04               	movwf	((c:WaitinMicroseconds@_dcnt)),c
  2538  00276E  5003               	movf	(??_WaitinMicroseconds+0+0)&0ffh,c,w
  2539  002770  D003               	goto	l68
  2540                           	
  2541  002772                     l67:
  2542  002772  D002               	goto	l68
  2543                           	
  2544  002774                     l69:
  2545                           # 25 "newmain.c"
  2546  002774  F000               nop ;# 
  2547                           # 25 "newmain.c"
  2548  002776  F000               nop ;# 
  2549                           psect	text4
  2550                           	
  2551  002778                     l68:
  2552  002778  2E04               	decfsz	((c:WaitinMicroseconds@_dcnt)),c
  2553                           	
  2554  00277A  D7FC               	goto	l69
  2555  00277C  D000               	goto	l71
  2556                           	
  2557  00277E                     l70:
  2558                           	line	26
  2559                           	
  2560  00277E                     l71:
  2561  00277E  0012               	return
  2562  002780  FFFF               	dw	0FFFFh; errata NOP
  2563                           	opt stack 0
  2564                           GLOBAL	__end_of_WaitinMicroseconds
  2565  002782                     	__end_of_WaitinMicroseconds:
  2566                           	signat	_WaitinMicroseconds,4216
  2567                           	global	_lcd_init
  2568                           
  2569 ;; *************** function _lcd_init *****************
  2570 ;; Defined at:
  2571 ;;		line 140 in file "lcd.c"
  2572 ;; Parameters:    Size  Location     Type
  2573 ;;  mode            1    6[COMRAM] unsigned char 
  2574 ;; Auto vars:     Size  Location     Type
  2575 ;;  _dcnt           1    8[COMRAM] unsigned char 
  2576 ;;  init_value      1    9[COMRAM] unsigned char 
  2577 ;; Return value:  Size  Location     Type
  2578 ;;		None               void
  2579 ;; Registers used:
  2580 ;;		wreg, status,2, status,0, cstack
  2581 ;; Tracked objects:
  2582 ;;		On entry : 0/0
  2583 ;;		On exit  : 0/0
  2584 ;;		Unchanged: 0/0
  2585 ;; Data sizes:     COMRAM   BANK0   BANK1   BANK2   BANK3   BANK4   BANK5
  2586 ;;      Params:         1       0       0       0       0       0       0
  2587 ;;      Locals:         2       0       0       0       0       0       0
  2588 ;;      Temps:          1       0       0       0       0       0       0
  2589 ;;      Totals:         4       0       0       0       0       0       0
  2590 ;;Total ram usage:        4 bytes
  2591 ;; Hardware stack levels used:    1
  2592 ;; Hardware stack levels required when called:    2
  2593 ;; This function calls:
  2594 ;;		_DelayMs
  2595 ;;		_lcd_cmd
  2596 ;; This function is called by:
  2597 ;;		_LcdInitialize_Settings
  2598 ;; This function uses a non-reentrant model
  2599 ;;
  2600                           psect	text5,class=CODE,space=0,reloc=2
  2601                           global __ptext5
  2602  001E4E                     __ptext5:
  2603                           psect	text5
  2604                           	file	"lcd.c"
  2605                           	line	140
  2606                           	global	__size_of_lcd_init
  2607  0000                     	__size_of_lcd_init	equ	__end_of_lcd_init-_lcd_init
  2608                           	
  2609  001E4E                     _lcd_init:
  2610                           	opt	stack 27
  2611  001E4E  FFFF               	dw	0FFFFh
  2612                           	line	143
  2613                           	
  2614  001E50                     l4443:
  2615                           ;lcd.c: 141: char init_value;
  2616                           ;lcd.c: 143: fourbit = 0;
  2617  001E50  0100               	movlb	(_fourbit/8) >> 8
  2618  001E52  9076               	bcf	(_fourbit/8),c,(_fourbit)&7
  2619                           	line	144
  2620                           ;lcd.c: 144: if (mode == 0x0) {
  2621  001E54  6607               	tstfsz	((c:lcd_init@mode)),c
  2622  001E56  D001               	goto	u3591
  2623  001E58  D001               	goto	u3590
  2624  001E5A                     u3591:
  2625  001E5A  D007               	goto	l4449
  2626  001E5C                     u3590:
  2627                           	line	145
  2628                           	
  2629  001E5C                     l4445:
  2630                           ;lcd.c: 145: fourbit = 1;
  2631  001E5C  0100               	movlb	(_fourbit/8) >> 8
  2632  001E5E  8076               	bsf	(_fourbit/8),c,(_fourbit)&7
  2633                           	line	146
  2634                           	
  2635  001E60                     l4447:
  2636                           ;lcd.c: 146: init_value = 0x3;
  2637  001E60  6E08               	movwf	(??_lcd_init+0+0)&0ffh,c
  2638  001E62  0E03               	movlw	low(03h)
  2639  001E64  6E0A               	movwf	((c:lcd_init@init_value)),c
  2640  001E66  5008               	movf	(??_lcd_init+0+0)&0ffh,c,w
  2641                           	line	147
  2642                           ;lcd.c: 147: } else {
  2643  001E68  D005               	goto	l4451
  2644                           	
  2645  001E6A                     l176:
  2646                           	line	148
  2647                           	
  2648  001E6A                     l4449:
  2649                           ;lcd.c: 148: init_value = 0x3F;
  2650  001E6A  6E08               	movwf	(??_lcd_init+0+0)&0ffh,c
  2651  001E6C  0E3F               	movlw	low(03Fh)
  2652  001E6E  6E0A               	movwf	((c:lcd_init@init_value)),c
  2653  001E70  5008               	movf	(??_lcd_init+0+0)&0ffh,c,w
  2654  001E72  D000               	goto	l4451
  2655                           	line	149
  2656                           	
  2657  001E74                     l177:
  2658                           	line	150
  2659                           	
  2660  001E74                     l4451:
  2661                           ;lcd.c: 149: }
  2662                           ;lcd.c: 150: LB3 = 0;
  2663  001E74  968A               	bcf	c:(31827/8),(31827)&7	;volatile
  2664                           	line	151
  2665                           	
  2666  001E76                     l4453:
  2667                           ;lcd.c: 151: LB1 = 0;
  2668  001E76  928A               	bcf	c:(31825/8),(31825)&7	;volatile
  2669                           	line	152
  2670                           	
  2671  001E78                     l4455:
  2672                           ;lcd.c: 152: LB2 = 0;
  2673  001E78  948A               	bcf	c:(31826/8),(31826)&7	;volatile
  2674                           	line	153
  2675                           	
  2676  001E7A                     l4457:
  2677                           ;lcd.c: 153: TRISB3 = 0x0;
  2678  001E7A  9693               	bcf	c:(31899/8),(31899)&7	;volatile
  2679                           	line	154
  2680                           	
  2681  001E7C                     l4459:
  2682                           ;lcd.c: 154: TRISB1 = 0x0;
  2683  001E7C  9293               	bcf	c:(31897/8),(31897)&7	;volatile
  2684                           	line	155
  2685                           	
  2686  001E7E                     l4461:
  2687                           ;lcd.c: 155: TRISB2 = 0x0;
  2688  001E7E  9493               	bcf	c:(31898/8),(31898)&7	;volatile
  2689                           	line	156
  2690                           	
  2691  001E80                     l4463:
  2692                           ;lcd.c: 156: TRISD = 0xF0;
  2693  001E80  0EF0               	movlw	low(0F0h)
  2694  001E82  6E95               	movwf	((c:3989)),c	;volatile
  2695                           	line	157
  2696                           	
  2697  001E84                     l4465:
  2698                           ;lcd.c: 157: DelayMs(15);
  2699  001E84  6E08               	movwf	(??_lcd_init+0+0)&0ffh,c
  2700  001E86  0E0F               	movlw	low(0Fh)
  2701  001E88  6E01               	movwf	((c:?_DelayMs)),c
  2702  001E8A  5008               	movf	(??_lcd_init+0+0)&0ffh,c,w
  2703  001E8C  ECD0  F012         	call	_DelayMs	;wreg free
  2704                           	line	158
  2705                           	
  2706  001E90                     l4467:
  2707                           ;lcd.c: 158: LATD = init_value;
  2708  001E90  C00A  FF8C         	movff	(c:lcd_init@init_value),(c:3980)	;volatile
  2709                           	line	159
  2710                           	
  2711  001E94                     l4469:
  2712                           ;lcd.c: 159: LB1 = 1; asm("nop"); asm("nop"); LB1 = 0;
  2713  001E94  828A               	bsf	c:(31825/8),(31825)&7	;volatile
  2714                           	
  2715  001E96                     l4471:
  2716                           # 159 "lcd.c"
  2717  001E96  F000               nop ;# 
  2718                           psect	text5
  2719                           	
  2720  001E98                     l4473:
  2721                           # 159 "lcd.c"
  2722  001E98  F000               nop ;# 
  2723                           psect	text5
  2724                           	
  2725  001E9A                     l4475:
  2726  001E9A  928A               	bcf	c:(31825/8),(31825)&7	;volatile
  2727                           	line	160
  2728                           	
  2729  001E9C                     l4477:
  2730                           ;lcd.c: 160: DelayMs(5);
  2731  001E9C  6E08               	movwf	(??_lcd_init+0+0)&0ffh,c
  2732  001E9E  0E05               	movlw	low(05h)
  2733  001EA0  6E01               	movwf	((c:?_DelayMs)),c
  2734  001EA2  5008               	movf	(??_lcd_init+0+0)&0ffh,c,w
  2735  001EA4  ECD0  F012         	call	_DelayMs	;wreg free
  2736                           	line	161
  2737                           	
  2738  001EA8                     l4479:
  2739                           ;lcd.c: 161: LATD = init_value;
  2740  001EA8  C00A  FF8C         	movff	(c:lcd_init@init_value),(c:3980)	;volatile
  2741                           	line	162
  2742                           	
  2743  001EAC                     l4481:
  2744                           ;lcd.c: 162: LB1 = 1; asm("nop"); asm("nop"); LB1 = 0;
  2745  001EAC  828A               	bsf	c:(31825/8),(31825)&7	;volatile
  2746                           	
  2747  001EAE                     l4483:
  2748                           # 162 "lcd.c"
  2749  001EAE  F000               nop ;# 
  2750                           psect	text5
  2751                           	
  2752  001EB0                     l4485:
  2753                           # 162 "lcd.c"
  2754  001EB0  F000               nop ;# 
  2755                           psect	text5
  2756                           	
  2757  001EB2                     l4487:
  2758                           ;lcd.c: 163: { unsigned char _dcnt; if(200>=4) _dcnt=(200*((4*1)/(4*1))/2); else _dcnt=1
                                 ; while(--_dcnt > 0) { asm("nop"); asm("nop"); continue; } };
  2759  001EB2  928A               	bcf	c:(31825/8),(31825)&7	;volatile
  2760                           	line	163
  2761                           	
  2762  001EB4                     l4489:
  2763  001EB4  6E08               	movwf	(??_lcd_init+0+0)&0ffh,c
  2764  001EB6  0E64               	movlw	low(064h)
  2765  001EB8  6E09               	movwf	((c:lcd_init@_dcnt)),c
  2766  001EBA  5008               	movf	(??_lcd_init+0+0)&0ffh,c,w
  2767  001EBC  D008               	goto	l180
  2768                           	
  2769  001EBE                     l178:
  2770                           	
  2771  001EBE                     l4491:
  2772  001EBE  6E08               	movwf	(??_lcd_init+0+0)&0ffh,c
  2773  001EC0  0E01               	movlw	low(01h)
  2774  001EC2  6E09               	movwf	((c:lcd_init@_dcnt)),c
  2775  001EC4  5008               	movf	(??_lcd_init+0+0)&0ffh,c,w
  2776  001EC6  D003               	goto	l180
  2777                           	
  2778  001EC8                     l179:
  2779  001EC8  D002               	goto	l180
  2780                           	
  2781  001ECA                     l181:
  2782                           # 163 "lcd.c"
  2783  001ECA  F000               nop ;# 
  2784                           # 163 "lcd.c"
  2785  001ECC  F000               nop ;# 
  2786                           psect	text5
  2787                           	
  2788  001ECE                     l180:
  2789  001ECE  2E09               	decfsz	((c:lcd_init@_dcnt)),c
  2790                           	
  2791  001ED0  D7FC               	goto	l181
  2792                           	
  2793  001ED2                     l182:
  2794                           	line	164
  2795                           ;lcd.c: 164: LATD = init_value;
  2796  001ED2  C00A  FF8C         	movff	(c:lcd_init@init_value),(c:3980)	;volatile
  2797                           	line	165
  2798                           ;lcd.c: 165: LB1 = 1; asm("nop"); asm("nop"); LB1 = 0;
  2799  001ED6  828A               	bsf	c:(31825/8),(31825)&7	;volatile
  2800                           # 165 "lcd.c"
  2801  001ED8  F000               nop ;# 
  2802                           # 165 "lcd.c"
  2803  001EDA  F000               nop ;# 
  2804                           psect	text5
  2805  001EDC  928A               	bcf	c:(31825/8),(31825)&7	;volatile
  2806                           	line	167
  2807                           ;lcd.c: 167: if (fourbit) {
  2808  001EDE  0100               	movlb	(_fourbit/8) >> 8
  2809  001EE0  A076               	btfss	(_fourbit/8),c,(_fourbit)&7
  2810  001EE2  D001               	goto	u3601
  2811  001EE4  D001               	goto	u3600
  2812  001EE6                     u3601:
  2813  001EE6  D013               	goto	l4507
  2814  001EE8                     u3600:
  2815                           	line	168
  2816                           	
  2817  001EE8                     l4493:
  2818                           ;lcd.c: 168: DelayMs(5);
  2819  001EE8  6E08               	movwf	(??_lcd_init+0+0)&0ffh,c
  2820  001EEA  0E05               	movlw	low(05h)
  2821  001EEC  6E01               	movwf	((c:?_DelayMs)),c
  2822  001EEE  5008               	movf	(??_lcd_init+0+0)&0ffh,c,w
  2823  001EF0  ECD0  F012         	call	_DelayMs	;wreg free
  2824                           	line	169
  2825                           	
  2826  001EF4                     l4495:
  2827                           ;lcd.c: 169: LATD = 0x2;
  2828  001EF4  0E02               	movlw	low(02h)
  2829  001EF6  6E8C               	movwf	((c:3980)),c	;volatile
  2830                           	line	170
  2831                           	
  2832  001EF8                     l4497:
  2833                           ;lcd.c: 170: LB1 = 1; asm("nop"); asm("nop"); LB1 = 0;
  2834  001EF8  828A               	bsf	c:(31825/8),(31825)&7	;volatile
  2835                           	
  2836  001EFA                     l4499:
  2837                           # 170 "lcd.c"
  2838  001EFA  F000               nop ;# 
  2839                           psect	text5
  2840                           	
  2841  001EFC                     l4501:
  2842                           # 170 "lcd.c"
  2843  001EFC  F000               nop ;# 
  2844                           psect	text5
  2845                           	
  2846  001EFE                     l4503:
  2847  001EFE  928A               	bcf	c:(31825/8),(31825)&7	;volatile
  2848                           	line	172
  2849                           	
  2850  001F00                     l4505:
  2851                           ;lcd.c: 172: lcd_cmd(0x28);
  2852  001F00  6E08               	movwf	(??_lcd_init+0+0)&0ffh,c
  2853  001F02  0E28               	movlw	low(028h)
  2854  001F04  6E05               	movwf	((c:?_lcd_cmd)),c
  2855  001F06  5008               	movf	(??_lcd_init+0+0)&0ffh,c,w
  2856  001F08  ECF9  F012         	call	_lcd_cmd	;wreg free
  2857                           	line	173
  2858                           ;lcd.c: 173: } else {
  2859  001F0C  D006               	goto	l184
  2860                           	
  2861  001F0E                     l183:
  2862                           	line	174
  2863                           	
  2864  001F0E                     l4507:
  2865                           ;lcd.c: 174: lcd_cmd(0x38);
  2866  001F0E  6E08               	movwf	(??_lcd_init+0+0)&0ffh,c
  2867  001F10  0E38               	movlw	low(038h)
  2868  001F12  6E05               	movwf	((c:?_lcd_cmd)),c
  2869  001F14  5008               	movf	(??_lcd_init+0+0)&0ffh,c,w
  2870  001F16  ECF9  F012         	call	_lcd_cmd	;wreg free
  2871                           	line	175
  2872                           	
  2873  001F1A                     l184:
  2874                           	line	176
  2875                           ;lcd.c: 175: }
  2876                           ;lcd.c: 176: lcd_cmd(0xF);
  2877  001F1A  6E08               	movwf	(??_lcd_init+0+0)&0ffh,c
  2878  001F1C  0E0F               	movlw	low(0Fh)
  2879  001F1E  6E05               	movwf	((c:?_lcd_cmd)),c
  2880  001F20  5008               	movf	(??_lcd_init+0+0)&0ffh,c,w
  2881  001F22  ECF9  F012         	call	_lcd_cmd	;wreg free
  2882                           	line	177
  2883                           ;lcd.c: 177: lcd_cmd(0x1);
  2884  001F26  6E08               	movwf	(??_lcd_init+0+0)&0ffh,c
  2885  001F28  0E01               	movlw	low(01h)
  2886  001F2A  6E05               	movwf	((c:?_lcd_cmd)),c
  2887  001F2C  5008               	movf	(??_lcd_init+0+0)&0ffh,c,w
  2888  001F2E  ECF9  F012         	call	_lcd_cmd	;wreg free
  2889                           	line	178
  2890                           ;lcd.c: 178: lcd_cmd(0x6);
  2891  001F32  6E08               	movwf	(??_lcd_init+0+0)&0ffh,c
  2892  001F34  0E06               	movlw	low(06h)
  2893  001F36  6E05               	movwf	((c:?_lcd_cmd)),c
  2894  001F38  5008               	movf	(??_lcd_init+0+0)&0ffh,c,w
  2895  001F3A  ECF9  F012         	call	_lcd_cmd	;wreg free
  2896                           	line	179
  2897                           ;lcd.c: 179: lcd_cmd(0x80);
  2898  001F3E  6E08               	movwf	(??_lcd_init+0+0)&0ffh,c
  2899  001F40  0E80               	movlw	low(080h)
  2900  001F42  6E05               	movwf	((c:?_lcd_cmd)),c
  2901  001F44  5008               	movf	(??_lcd_init+0+0)&0ffh,c,w
  2902  001F46  ECF9  F012         	call	_lcd_cmd	;wreg free
  2903                           	line	180
  2904                           	
  2905  001F4A                     l185:
  2906  001F4A  0012               	return
  2907  001F4C  FFFF               	dw	0FFFFh; errata NOP
  2908                           	opt stack 0
  2909                           GLOBAL	__end_of_lcd_init
  2910  001F4E                     	__end_of_lcd_init:
  2911                           	signat	_lcd_init,4216
  2912                           	global	_lcd_cmd
  2913                           
  2914 ;; *************** function _lcd_cmd *****************
  2915 ;; Defined at:
  2916 ;;		line 63 in file "lcd.c"
  2917 ;; Parameters:    Size  Location     Type
  2918 ;;  c               1    4[COMRAM] unsigned char 
  2919 ;; Auto vars:     Size  Location     Type
  2920 ;;		None
  2921 ;; Return value:  Size  Location     Type
  2922 ;;		None               void
  2923 ;; Registers used:
  2924 ;;		wreg, status,2, status,0, cstack
  2925 ;; Tracked objects:
  2926 ;;		On entry : 0/0
  2927 ;;		On exit  : 0/0
  2928 ;;		Unchanged: 0/0
  2929 ;; Data sizes:     COMRAM   BANK0   BANK1   BANK2   BANK3   BANK4   BANK5
  2930 ;;      Params:         1       0       0       0       0       0       0
  2931 ;;      Locals:         0       0       0       0       0       0       0
  2932 ;;      Temps:          1       0       0       0       0       0       0
  2933 ;;      Totals:         2       0       0       0       0       0       0
  2934 ;;Total ram usage:        2 bytes
  2935 ;; Hardware stack levels used:    1
  2936 ;; Hardware stack levels required when called:    1
  2937 ;; This function calls:
  2938 ;;		_DelayMs
  2939 ;; This function is called by:
  2940 ;;		_LcdInitialize_Settings
  2941 ;;		_main
  2942 ;;		_lcd_init
  2943 ;; This function uses a non-reentrant model
  2944 ;;
  2945                           psect	text6,class=CODE,space=0,reloc=2
  2946                           global __ptext6
  2947  0025F2                     __ptext6:
  2948                           psect	text6
  2949                           	file	"lcd.c"
  2950                           	line	63
  2951                           	global	__size_of_lcd_cmd
  2952  0000                     	__size_of_lcd_cmd	equ	__end_of_lcd_cmd-_lcd_cmd
  2953                           	
  2954  0025F2                     _lcd_cmd:
  2955                           	opt	stack 29
  2956  0025F2  FFFF               	dw	0FFFFh
  2957                           	line	64
  2958                           	
  2959  0025F4                     l4161:
  2960                           ;lcd.c: 64: DelayMs(5);
  2961  0025F4  6E06               	movwf	(??_lcd_cmd+0+0)&0ffh,c
  2962  0025F6  0E05               	movlw	low(05h)
  2963  0025F8  6E01               	movwf	((c:?_DelayMs)),c
  2964  0025FA  5006               	movf	(??_lcd_cmd+0+0)&0ffh,c,w
  2965  0025FC  ECD0  F012         	call	_DelayMs	;wreg free
  2966                           	line	66
  2967                           	
  2968  002600                     l4163:
  2969                           ;lcd.c: 66: if (fourbit) {
  2970  002600  0100               	movlb	(_fourbit/8) >> 8
  2971  002602  A076               	btfss	(_fourbit/8),c,(_fourbit)&7
  2972  002604  D001               	goto	u3121
  2973  002606  D001               	goto	u3120
  2974  002608                     u3121:
  2975  002608  D010               	goto	l149
  2976  00260A                     u3120:
  2977                           	line	67
  2978                           	
  2979  00260A                     l4165:
  2980                           ;lcd.c: 67: LATD = ((c >> 4) & 0x0F);
  2981  00260A  3805               	swapf	((c:lcd_cmd@c)),c,w
  2982  00260C  0B0F               	andlw	(0ffh shr 4) & 0ffh
  2983  00260E  0B0F               	andlw	low(0Fh)
  2984  002610  6E8C               	movwf	((c:3980)),c	;volatile
  2985                           	line	68
  2986                           	
  2987  002612                     l4167:
  2988                           ;lcd.c: 68: LB1 = 1; asm("nop"); asm("nop"); LB1 = 0;
  2989  002612  828A               	bsf	c:(31825/8),(31825)&7	;volatile
  2990                           	
  2991  002614                     l4169:
  2992                           # 68 "lcd.c"
  2993  002614  F000               nop ;# 
  2994                           psect	text6
  2995                           	
  2996  002616                     l4171:
  2997                           # 68 "lcd.c"
  2998  002616  F000               nop ;# 
  2999                           psect	text6
  3000                           	
  3001  002618                     l4173:
  3002  002618  928A               	bcf	c:(31825/8),(31825)&7	;volatile
  3003                           	line	69
  3004                           ;lcd.c: 69: LATD = (c & 0x0F);
  3005  00261A  5005               	movf	((c:lcd_cmd@c)),c,w
  3006  00261C  0B0F               	andlw	low(0Fh)
  3007  00261E  6E8C               	movwf	((c:3980)),c	;volatile
  3008                           	line	70
  3009                           	
  3010  002620                     l4175:
  3011                           ;lcd.c: 70: LB1 = 1; asm("nop"); asm("nop"); LB1 = 0;
  3012  002620  828A               	bsf	c:(31825/8),(31825)&7	;volatile
  3013                           	
  3014  002622                     l4177:
  3015                           # 70 "lcd.c"
  3016  002622  F000               nop ;# 
  3017                           psect	text6
  3018                           	
  3019  002624                     l4179:
  3020                           # 70 "lcd.c"
  3021  002624  F000               nop ;# 
  3022                           psect	text6
  3023                           	
  3024  002626                     l4181:
  3025  002626  928A               	bcf	c:(31825/8),(31825)&7	;volatile
  3026                           	line	71
  3027                           ;lcd.c: 71: } else {
  3028  002628  D007               	goto	l151
  3029                           	
  3030  00262A                     l149:
  3031                           	line	72
  3032                           ;lcd.c: 72: LATD = c;
  3033  00262A  C005  FF8C         	movff	(c:lcd_cmd@c),(c:3980)	;volatile
  3034                           	line	73
  3035                           ;lcd.c: 73: LB1 = 1; asm("nop"); asm("nop"); LB1 = 0;
  3036  00262E  828A               	bsf	c:(31825/8),(31825)&7	;volatile
  3037                           # 73 "lcd.c"
  3038  002630  F000               nop ;# 
  3039                           # 73 "lcd.c"
  3040  002632  F000               nop ;# 
  3041                           psect	text6
  3042  002634  928A               	bcf	c:(31825/8),(31825)&7	;volatile
  3043  002636  D000               	goto	l151
  3044                           	line	74
  3045                           	
  3046  002638                     l150:
  3047                           	line	75
  3048                           	
  3049  002638                     l151:
  3050  002638  0012               	return
  3051  00263A  FFFF               	dw	0FFFFh; errata NOP
  3052                           	opt stack 0
  3053                           GLOBAL	__end_of_lcd_cmd
  3054  00263C                     	__end_of_lcd_cmd:
  3055                           	signat	_lcd_cmd,4216
  3056                           	global	_Analog2Digital_Settings
  3057                           
  3058 ;; *************** function _Analog2Digital_Settings *****************
  3059 ;; Defined at:
  3060 ;;		line 72 in file "newmain.c"
  3061 ;; Parameters:    Size  Location     Type
  3062 ;;		None
  3063 ;; Auto vars:     Size  Location     Type
  3064 ;;		None
  3065 ;; Return value:  Size  Location     Type
  3066 ;;		None               void
  3067 ;; Registers used:
  3068 ;;		None
  3069 ;; Tracked objects:
  3070 ;;		On entry : 0/0
  3071 ;;		On exit  : 0/0
  3072 ;;		Unchanged: 0/0
  3073 ;; Data sizes:     COMRAM   BANK0   BANK1   BANK2   BANK3   BANK4   BANK5
  3074 ;;      Params:         0       0       0       0       0       0       0
  3075 ;;      Locals:         0       0       0       0       0       0       0
  3076 ;;      Temps:          0       0       0       0       0       0       0
  3077 ;;      Totals:         0       0       0       0       0       0       0
  3078 ;;Total ram usage:        0 bytes
  3079 ;; Hardware stack levels used:    1
  3080 ;; This function calls:
  3081 ;;		Nothing
  3082 ;; This function is called by:
  3083 ;;		_main
  3084 ;; This function uses a non-reentrant model
  3085 ;;
  3086                           psect	text7,class=CODE,space=0,reloc=2
  3087                           global __ptext7
  3088  0028C0                     __ptext7:
  3089                           psect	text7
  3090                           	file	"newmain.c"
  3091                           	line	72
  3092                           	global	__size_of_Analog2Digital_Settings
  3093  0000                     	__size_of_Analog2Digital_Settings	equ	__end_of_Analog2Digital_Settings-_Analog2Digital_
                                 Settings
  3094                           	
  3095  0028C0                     _Analog2Digital_Settings:
  3096                           	opt	stack 30
  3097  0028C0  FFFF               	dw	0FFFFh
  3098                           	line	73
  3099                           	
  3100  0028C2                     l1891:
  3101                           ;newmain.c: 73: TRISA0 = 1;
  3102  0028C2  8092               	bsf	c:(31888/8),(31888)&7	;volatile
  3103                           	line	74
  3104                           ;newmain.c: 74: TRISA1 = 1;
  3105  0028C4  8292               	bsf	c:(31889/8),(31889)&7	;volatile
  3106                           	line	75
  3107                           ;newmain.c: 75: ADCON1bits.PCFG0 = 1;
  3108  0028C6  80C1               	bsf	((c:4033)),c,0	;volatile
  3109                           	line	76
  3110                           ;newmain.c: 76: ADCON1bits.PCFG1 = 0;
  3111  0028C8  92C1               	bcf	((c:4033)),c,1	;volatile
  3112                           	line	77
  3113                           ;newmain.c: 77: ADCON1bits.PCFG2 = 0;
  3114  0028CA  94C1               	bcf	((c:4033)),c,2	;volatile
  3115                           	line	78
  3116                           ;newmain.c: 78: ADCON1bits.PCFG3 = 1;
  3117  0028CC  86C1               	bsf	((c:4033)),c,3	;volatile
  3118                           	line	79
  3119                           ;newmain.c: 79: ADCON0bits.ADCS0 = 0;
  3120  0028CE  9CC2               	bcf	((c:4034)),c,6	;volatile
  3121                           	line	80
  3122                           ;newmain.c: 80: ADCON0bits.ADCS1 = 1;
  3123  0028D0  8EC2               	bsf	((c:4034)),c,7	;volatile
  3124                           	line	81
  3125                           	
  3126  0028D2                     l93:
  3127  0028D2  0012               	return
  3128  0028D4  FFFF               	dw	0FFFFh; errata NOP
  3129                           	opt stack 0
  3130                           GLOBAL	__end_of_Analog2Digital_Settings
  3131  0028D6                     	__end_of_Analog2Digital_Settings:
  3132                           	signat	_Analog2Digital_Settings,88
  3133                           	global	_lcd_putsTwoint
  3134                           
  3135 ;; *************** function _lcd_putsTwoint *****************
  3136 ;; Defined at:
  3137 ;;		line 112 in file "lcd.c"
  3138 ;; Parameters:    Size  Location     Type
  3139 ;;  iFirstValue     2  108[COMRAM] int 
  3140 ;;  iSecondValue    2  110[COMRAM] int 
  3141 ;; Auto vars:     Size  Location     Type
  3142 ;;  crgValue       15    0[BANK0 ] unsigned char [15]
  3143 ;;  crgSecondVal    5   20[BANK0 ] unsigned char [5]
  3144 ;;  crgFirstValu    5   15[BANK0 ] unsigned char [5]
  3145 ;;  cptrValue       2   25[BANK0 ] PTR unsigned char 
  3146 ;;		 -> lcd_putsTwoint@crgValue(15), NULL(0), 
  3147 ;; Return value:  Size  Location     Type
  3148 ;;		None               void
  3149 ;; Registers used:
  3150 ;;		wreg, fsr0l, fsr0h, fsr1l, fsr1h, fsr2l, fsr2h, status,2, status,0, tblptrl, tblptrh, tblptru, prodl, prodh, cstack
  3151 ;; Tracked objects:
  3152 ;;		On entry : 0/0
  3153 ;;		On exit  : 0/0
  3154 ;;		Unchanged: 0/0
  3155 ;; Data sizes:     COMRAM   BANK0   BANK1   BANK2   BANK3   BANK4   BANK5
  3156 ;;      Params:         4       0       0       0       0       0       0
  3157 ;;      Locals:         0      27       0       0       0       0       0
  3158 ;;      Temps:          0       0       0       0       0       0       0
  3159 ;;      Totals:         4      27       0       0       0       0       0
  3160 ;;Total ram usage:       31 bytes
  3161 ;; Hardware stack levels used:    1
  3162 ;; Hardware stack levels required when called:    5
  3163 ;; This function calls:
  3164 ;;		_sprintf
  3165 ;;		_strcat
  3166 ;;		_lcd_puts
  3167 ;; This function is called by:
  3168 ;;		_main
  3169 ;; This function uses a non-reentrant model
  3170 ;;
  3171                           psect	text8,class=CODE,space=0,reloc=2
  3172                           global __ptext8
  3173  001D4A                     __ptext8:
  3174                           psect	text8
  3175                           	file	"lcd.c"
  3176                           	line	112
  3177                           	global	__size_of_lcd_putsTwoint
  3178  0000                     	__size_of_lcd_putsTwoint	equ	__end_of_lcd_putsTwoint-_lcd_putsTwoint
  3179                           	
  3180  001D4A                     _lcd_putsTwoint:
  3181                           	opt	stack 25
  3182  001D4A  FFFF               	dw	0FFFFh
  3183                           	line	113
  3184                           	
  3185  001D4C                     l4803:
  3186                           ;lcd.c: 113: char* cptrValue = (0);
  3187  001D4C  0E00               	movlw	high(0)
  3188  001D4E  0100               	movlb	0	; () banked
  3189  001D50  0100               	movlb	0	; () banked
  3190  001D52  6F9A               	movwf	((lcd_putsTwoint@cptrValue+1))&0ffh
  3191  001D54  0E00               	movlw	low(0)
  3192  001D56  0100               	movlb	0	; () banked
  3193  001D58  6F99               	movwf	((lcd_putsTwoint@cptrValue))&0ffh
  3194                           	line	114
  3195                           	
  3196  001D5A                     l4805:
  3197                           ;lcd.c: 114: char crgValue[15] = "";
  3198  001D5A  EE20  F09B         	lfsr	2,(lcd_putsTwoint@F3371)
  3199  001D5E  EE10  F080         	lfsr	1,(lcd_putsTwoint@crgValue)
  3200  001D62  0E0F               	movlw	15
  3201  001D64                     u4001:
  3202  001D64  CFDE FFE6          	movff	postinc2,postinc1
  3203  001D68  2EE8               	decfsz	wreg
  3204  001D6A  D7FC               	goto	u4001
  3205                           	line	117
  3206                           	
  3207  001D6C                     l4807:
  3208                           ;lcd.c: 115: char crgFirstValue[5];
  3209                           ;lcd.c: 116: char crgSecondValue[5];
  3210                           ;lcd.c: 117: sprintf(crgFirstValue, "%d", iFirstValue);
  3211  001D6C  0100               	movlb	0	; () banked
  3212  001D6E  0E00               	movlw	high(lcd_putsTwoint@crgFirstValue)
  3213  001D70  6E46               	movwf	((c:?_sprintf+1)),c
  3214  001D72  0100               	movlb	0	; () banked
  3215  001D74  0E8F               	movlw	low(lcd_putsTwoint@crgFirstValue)
  3216  001D76  6E45               	movwf	((c:?_sprintf)),c
  3217  001D78  0E06               	movlw	high(STR_2)
  3218  001D7A  6E48               	movwf	(1+((c:?_sprintf)+02h)),c
  3219  001D7C  0E7E               	movlw	low(STR_2)
  3220  001D7E  6E47               	movwf	(0+((c:?_sprintf)+02h)),c
  3221  001D80  C06D  F049         	movff	(c:lcd_putsTwoint@iFirstValue),0+((c:?_sprintf)+04h)
  3222  001D84  C06E  F04A         	movff	(c:lcd_putsTwoint@iFirstValue+1),1+((c:?_sprintf)+04h)
  3223  001D88  EC44  F003         	call	_sprintf	;wreg free
  3224                           	line	118
  3225                           	
  3226  001D8C                     l4809:
  3227                           ;lcd.c: 118: sprintf(crgSecondValue, "%d", iSecondValue);
  3228  001D8C  0100               	movlb	0	; () banked
  3229  001D8E  0E00               	movlw	high(lcd_putsTwoint@crgSecondValue)
  3230  001D90  6E46               	movwf	((c:?_sprintf+1)),c
  3231  001D92  0100               	movlb	0	; () banked
  3232  001D94  0E94               	movlw	low(lcd_putsTwoint@crgSecondValue)
  3233  001D96  6E45               	movwf	((c:?_sprintf)),c
  3234  001D98  0E06               	movlw	high(STR_3)
  3235  001D9A  6E48               	movwf	(1+((c:?_sprintf)+02h)),c
  3236  001D9C  0E7E               	movlw	low(STR_3)
  3237  001D9E  6E47               	movwf	(0+((c:?_sprintf)+02h)),c
  3238  001DA0  C06F  F049         	movff	(c:lcd_putsTwoint@iSecondValue),0+((c:?_sprintf)+04h)
  3239  001DA4  C070  F04A         	movff	(c:lcd_putsTwoint@iSecondValue+1),1+((c:?_sprintf)+04h)
  3240  001DA8  EC44  F003         	call	_sprintf	;wreg free
  3241                           	line	120
  3242                           	
  3243  001DAC                     l4811:
  3244                           ;lcd.c: 120: strcat(crgValue,"Lt:");
  3245  001DAC  0100               	movlb	0	; () banked
  3246  001DAE  0E00               	movlw	high(lcd_putsTwoint@crgValue)
  3247  001DB0  6E02               	movwf	((c:?_strcat+1)),c
  3248  001DB2  0100               	movlb	0	; () banked
  3249  001DB4  0E80               	movlw	low(lcd_putsTwoint@crgValue)
  3250  001DB6  6E01               	movwf	((c:?_strcat)),c
  3251  001DB8  0E06               	movlw	high(STR_4)
  3252  001DBA  6E04               	movwf	(1+((c:?_strcat)+02h)),c
  3253  001DBC  0E76               	movlw	low(STR_4)
  3254  001DBE  6E03               	movwf	(0+((c:?_strcat)+02h)),c
  3255  001DC0  EC32  F012         	call	_strcat	;wreg free
  3256                           	line	121
  3257                           	
  3258  001DC4                     l4813:
  3259                           ;lcd.c: 121: strcat(crgValue,crgFirstValue);
  3260  001DC4  0100               	movlb	0	; () banked
  3261  001DC6  0E00               	movlw	high(lcd_putsTwoint@crgValue)
  3262  001DC8  6E02               	movwf	((c:?_strcat+1)),c
  3263  001DCA  0100               	movlb	0	; () banked
  3264  001DCC  0E80               	movlw	low(lcd_putsTwoint@crgValue)
  3265  001DCE  6E01               	movwf	((c:?_strcat)),c
  3266  001DD0  0100               	movlb	0	; () banked
  3267  001DD2  0E00               	movlw	high(lcd_putsTwoint@crgFirstValue)
  3268  001DD4  6E04               	movwf	(1+((c:?_strcat)+02h)),c
  3269  001DD6  0100               	movlb	0	; () banked
  3270  001DD8  0E8F               	movlw	low(lcd_putsTwoint@crgFirstValue)
  3271  001DDA  6E03               	movwf	(0+((c:?_strcat)+02h)),c
  3272  001DDC  EC32  F012         	call	_strcat	;wreg free
  3273                           	line	122
  3274                           	
  3275  001DE0                     l4815:
  3276                           ;lcd.c: 122: strcat(crgValue," ");
  3277  001DE0  0100               	movlb	0	; () banked
  3278  001DE2  0E00               	movlw	high(lcd_putsTwoint@crgValue)
  3279  001DE4  6E02               	movwf	((c:?_strcat+1)),c
  3280  001DE6  0100               	movlb	0	; () banked
  3281  001DE8  0E80               	movlw	low(lcd_putsTwoint@crgValue)
  3282  001DEA  6E01               	movwf	((c:?_strcat)),c
  3283  001DEC  0E06               	movlw	high(STR_5)
  3284  001DEE  6E04               	movwf	(1+((c:?_strcat)+02h)),c
  3285  001DF0  0E84               	movlw	low(STR_5)
  3286  001DF2  6E03               	movwf	(0+((c:?_strcat)+02h)),c
  3287  001DF4  EC32  F012         	call	_strcat	;wreg free
  3288                           	line	123
  3289                           	
  3290  001DF8                     l4817:
  3291                           ;lcd.c: 123: strcat(crgValue,"Rt:");
  3292  001DF8  0100               	movlb	0	; () banked
  3293  001DFA  0E00               	movlw	high(lcd_putsTwoint@crgValue)
  3294  001DFC  6E02               	movwf	((c:?_strcat+1)),c
  3295  001DFE  0100               	movlb	0	; () banked
  3296  001E00  0E80               	movlw	low(lcd_putsTwoint@crgValue)
  3297  001E02  6E01               	movwf	((c:?_strcat)),c
  3298  001E04  0E06               	movlw	high(STR_6)
  3299  001E06  6E04               	movwf	(1+((c:?_strcat)+02h)),c
  3300  001E08  0E7A               	movlw	low(STR_6)
  3301  001E0A  6E03               	movwf	(0+((c:?_strcat)+02h)),c
  3302  001E0C  EC32  F012         	call	_strcat	;wreg free
  3303                           	line	124
  3304                           	
  3305  001E10                     l4819:
  3306                           ;lcd.c: 124: strcat(crgValue,crgSecondValue);
  3307  001E10  0100               	movlb	0	; () banked
  3308  001E12  0E00               	movlw	high(lcd_putsTwoint@crgValue)
  3309  001E14  6E02               	movwf	((c:?_strcat+1)),c
  3310  001E16  0100               	movlb	0	; () banked
  3311  001E18  0E80               	movlw	low(lcd_putsTwoint@crgValue)
  3312  001E1A  6E01               	movwf	((c:?_strcat)),c
  3313  001E1C  0100               	movlb	0	; () banked
  3314  001E1E  0E00               	movlw	high(lcd_putsTwoint@crgSecondValue)
  3315  001E20  6E04               	movwf	(1+((c:?_strcat)+02h)),c
  3316  001E22  0100               	movlb	0	; () banked
  3317  001E24  0E94               	movlw	low(lcd_putsTwoint@crgSecondValue)
  3318  001E26  6E03               	movwf	(0+((c:?_strcat)+02h)),c
  3319  001E28  EC32  F012         	call	_strcat	;wreg free
  3320                           	line	126
  3321                           	
  3322  001E2C                     l4821:
  3323                           ;lcd.c: 126: cptrValue = &crgValue;
  3324  001E2C  0100               	movlb	0	; () banked
  3325  001E2E  0E00               	movlw	high(lcd_putsTwoint@crgValue)
  3326  001E30  0100               	movlb	0	; () banked
  3327  001E32  0100               	movlb	0	; () banked
  3328  001E34  6F9A               	movwf	((lcd_putsTwoint@cptrValue+1))&0ffh
  3329  001E36  0100               	movlb	0	; () banked
  3330  001E38  0E80               	movlw	low(lcd_putsTwoint@crgValue)
  3331  001E3A  0100               	movlb	0	; () banked
  3332  001E3C  6F99               	movwf	((lcd_putsTwoint@cptrValue))&0ffh
  3333                           	line	127
  3334                           	
  3335  001E3E                     l4823:
  3336                           ;lcd.c: 127: lcd_puts(cptrValue);
  3337  001E3E  C099  F007         	movff	(lcd_putsTwoint@cptrValue),(c:?_lcd_puts)
  3338  001E42  C09A  F008         	movff	(lcd_putsTwoint@cptrValue+1),(c:?_lcd_puts+1)
  3339  001E46  ECFA  F013         	call	_lcd_puts	;wreg free
  3340                           	line	128
  3341                           	
  3342  001E4A                     l170:
  3343  001E4A  0012               	return
  3344  001E4C  FFFF               	dw	0FFFFh; errata NOP
  3345                           	opt stack 0
  3346                           GLOBAL	__end_of_lcd_putsTwoint
  3347  001E4E                     	__end_of_lcd_putsTwoint:
  3348                           	signat	_lcd_putsTwoint,8312
  3349                           	global	_lcd_puts
  3350                           
  3351 ;; *************** function _lcd_puts *****************
  3352 ;; Defined at:
  3353 ;;		line 98 in file "lcd.c"
  3354 ;; Parameters:    Size  Location     Type
  3355 ;;  s               2    6[COMRAM] PTR const unsigned char 
  3356 ;;		 -> lcd_putsfloat@crgValue(15), lcd_putsTwoint@crgValue(15), lcd_putsint@crgValue(15), NULL(0), 
  3357 ;; Auto vars:     Size  Location     Type
  3358 ;;		None
  3359 ;; Return value:  Size  Location     Type
  3360 ;;		None               void
  3361 ;; Registers used:
  3362 ;;		wreg, fsr2l, fsr2h, status,2, status,0, cstack
  3363 ;; Tracked objects:
  3364 ;;		On entry : 0/0
  3365 ;;		On exit  : 0/0
  3366 ;;		Unchanged: 0/0
  3367 ;; Data sizes:     COMRAM   BANK0   BANK1   BANK2   BANK3   BANK4   BANK5
  3368 ;;      Params:         2       0       0       0       0       0       0
  3369 ;;      Locals:         0       0       0       0       0       0       0
  3370 ;;      Temps:          0       0       0       0       0       0       0
  3371 ;;      Totals:         2       0       0       0       0       0       0
  3372 ;;Total ram usage:        2 bytes
  3373 ;; Hardware stack levels used:    1
  3374 ;; Hardware stack levels required when called:    2
  3375 ;; This function calls:
  3376 ;;		_lcd_data
  3377 ;; This function is called by:
  3378 ;;		_lcd_putsTwoint
  3379 ;;		_lcd_putsint
  3380 ;;		_lcd_putsfloat
  3381 ;; This function uses a non-reentrant model
  3382 ;;
  3383                           psect	text9,class=CODE,space=0,reloc=2
  3384                           global __ptext9
  3385  0027F4                     __ptext9:
  3386                           psect	text9
  3387                           	file	"lcd.c"
  3388                           	line	98
  3389                           	global	__size_of_lcd_puts
  3390  0000                     	__size_of_lcd_puts	equ	__end_of_lcd_puts-_lcd_puts
  3391                           	
  3392  0027F4                     _lcd_puts:
  3393                           	opt	stack 27
  3394  0027F4  FFFF               	dw	0FFFFh
  3395                           	line	99
  3396                           	
  3397  0027F6                     l4509:
  3398                           ;lcd.c: 99: while (*s)
  3399  0027F6  D00B               	goto	l4515
  3400                           	
  3401  0027F8                     l160:
  3402                           	line	100
  3403                           	
  3404  0027F8                     l4511:
  3405                           ;lcd.c: 100: lcd_data(*s++);
  3406  0027F8  C007  FFD9         	movff	(c:lcd_puts@s),fsr2l
  3407  0027FC  C008  FFDA         	movff	(c:lcd_puts@s+1),fsr2h
  3408  002800  50DF               	movf	indf2,w
  3409  002802  6E05               	movwf	((c:?_lcd_data)),c
  3410  002804  ECA6  F012         	call	_lcd_data	;wreg free
  3411                           	
  3412  002808                     l4513:
  3413  002808  4A07               	infsnz	((c:lcd_puts@s)),c
  3414  00280A  2A08               	incf	((c:lcd_puts@s+1)),c
  3415  00280C  D000               	goto	l4515
  3416                           	
  3417  00280E                     l159:
  3418                           	line	99
  3419                           	
  3420  00280E                     l4515:
  3421  00280E  C007  FFD9         	movff	(c:lcd_puts@s),fsr2l
  3422  002812  C008  FFDA         	movff	(c:lcd_puts@s+1),fsr2h
  3423  002816  50DF               	movf	indf2,w
  3424  002818  A4D8               	btfss	status,2
  3425  00281A  D001               	goto	u3611
  3426  00281C  D001               	goto	u3610
  3427  00281E                     u3611:
  3428  00281E  D7EC               	goto	l4511
  3429  002820                     u3610:
  3430  002820  D000               	goto	l162
  3431                           	
  3432  002822                     l161:
  3433                           	line	101
  3434                           	
  3435  002822                     l162:
  3436  002822  0012               	return
  3437  002824  FFFF               	dw	0FFFFh; errata NOP
  3438                           	opt stack 0
  3439                           GLOBAL	__end_of_lcd_puts
  3440  002826                     	__end_of_lcd_puts:
  3441                           	signat	_lcd_puts,4216
  3442                           	global	_lcd_data
  3443                           
  3444 ;; *************** function _lcd_data *****************
  3445 ;; Defined at:
  3446 ;;		line 78 in file "lcd.c"
  3447 ;; Parameters:    Size  Location     Type
  3448 ;;  c               1    4[COMRAM] unsigned char 
  3449 ;; Auto vars:     Size  Location     Type
  3450 ;;		None
  3451 ;; Return value:  Size  Location     Type
  3452 ;;		None               void
  3453 ;; Registers used:
  3454 ;;		wreg, status,2, status,0, cstack
  3455 ;; Tracked objects:
  3456 ;;		On entry : 0/0
  3457 ;;		On exit  : 0/0
  3458 ;;		Unchanged: 0/0
  3459 ;; Data sizes:     COMRAM   BANK0   BANK1   BANK2   BANK3   BANK4   BANK5
  3460 ;;      Params:         1       0       0       0       0       0       0
  3461 ;;      Locals:         0       0       0       0       0       0       0
  3462 ;;      Temps:          1       0       0       0       0       0       0
  3463 ;;      Totals:         2       0       0       0       0       0       0
  3464 ;;Total ram usage:        2 bytes
  3465 ;; Hardware stack levels used:    1
  3466 ;; Hardware stack levels required when called:    1
  3467 ;; This function calls:
  3468 ;;		_DelayMs
  3469 ;; This function is called by:
  3470 ;;		_lcd_puts
  3471 ;; This function uses a non-reentrant model
  3472 ;;
  3473                           psect	text10,class=CODE,space=0,reloc=2
  3474                           global __ptext10
  3475  00254C                     __ptext10:
  3476                           psect	text10
  3477                           	file	"lcd.c"
  3478                           	line	78
  3479                           	global	__size_of_lcd_data
  3480  0000                     	__size_of_lcd_data	equ	__end_of_lcd_data-_lcd_data
  3481                           	
  3482  00254C                     _lcd_data:
  3483                           	opt	stack 27
  3484  00254C  FFFF               	dw	0FFFFh
  3485                           	line	79
  3486                           	
  3487  00254E                     l4183:
  3488                           ;lcd.c: 79: DelayMs(5);
  3489  00254E  6E06               	movwf	(??_lcd_data+0+0)&0ffh,c
  3490  002550  0E05               	movlw	low(05h)
  3491  002552  6E01               	movwf	((c:?_DelayMs)),c
  3492  002554  5006               	movf	(??_lcd_data+0+0)&0ffh,c,w
  3493  002556  ECD0  F012         	call	_DelayMs	;wreg free
  3494                           	line	81
  3495                           	
  3496  00255A                     l4185:
  3497                           ;lcd.c: 81: LATD = 0;
  3498  00255A  0E00               	movlw	low(0)
  3499  00255C  6E8C               	movwf	((c:3980)),c	;volatile
  3500                           	line	82
  3501                           	
  3502  00255E                     l4187:
  3503                           ;lcd.c: 82: LB3 = 1;
  3504  00255E  868A               	bsf	c:(31827/8),(31827)&7	;volatile
  3505                           	line	83
  3506                           	
  3507  002560                     l4189:
  3508                           ;lcd.c: 83: if (fourbit) {
  3509  002560  0100               	movlb	(_fourbit/8) >> 8
  3510  002562  A076               	btfss	(_fourbit/8),c,(_fourbit)&7
  3511  002564  D001               	goto	u3131
  3512  002566  D001               	goto	u3130
  3513  002568                     u3131:
  3514  002568  D012               	goto	l154
  3515  00256A                     u3130:
  3516                           	line	84
  3517                           	
  3518  00256A                     l4191:
  3519                           ;lcd.c: 84: LATD |= ((c >> 4) & 0x0F);
  3520  00256A  3805               	swapf	((c:lcd_data@c)),c,w
  3521  00256C  0B0F               	andlw	(0ffh shr 4) & 0ffh
  3522  00256E  0B0F               	andlw	low(0Fh)
  3523  002570  128C               	iorwf	((c:3980)),c	;volatile
  3524                           	line	85
  3525                           	
  3526  002572                     l4193:
  3527                           ;lcd.c: 85: LB1 = 1; asm("nop"); asm("nop"); LB1 = 0;
  3528  002572  828A               	bsf	c:(31825/8),(31825)&7	;volatile
  3529                           	
  3530  002574                     l4195:
  3531                           # 85 "lcd.c"
  3532  002574  F000               nop ;# 
  3533                           psect	text10
  3534                           	
  3535  002576                     l4197:
  3536                           # 85 "lcd.c"
  3537  002576  F000               nop ;# 
  3538                           psect	text10
  3539                           	
  3540  002578                     l4199:
  3541  002578  928A               	bcf	c:(31825/8),(31825)&7	;volatile
  3542                           	line	86
  3543                           ;lcd.c: 86: LATD &= 0xF0;
  3544  00257A  0EF0               	movlw	(0F0h)&0ffh
  3545  00257C  168C               	andwf	((c:3980)),c	;volatile
  3546                           	line	87
  3547                           ;lcd.c: 87: LATD |= (c & 0x0F);
  3548  00257E  5005               	movf	((c:lcd_data@c)),c,w
  3549  002580  0B0F               	andlw	low(0Fh)
  3550  002582  128C               	iorwf	((c:3980)),c	;volatile
  3551                           	line	88
  3552                           	
  3553  002584                     l4201:
  3554                           ;lcd.c: 88: LB1 = 1; asm("nop"); asm("nop"); LB1 = 0;
  3555  002584  828A               	bsf	c:(31825/8),(31825)&7	;volatile
  3556                           	
  3557  002586                     l4203:
  3558                           # 88 "lcd.c"
  3559  002586  F000               nop ;# 
  3560                           psect	text10
  3561                           	
  3562  002588                     l4205:
  3563                           # 88 "lcd.c"
  3564  002588  F000               nop ;# 
  3565                           psect	text10
  3566                           	
  3567  00258A                     l4207:
  3568  00258A  928A               	bcf	c:(31825/8),(31825)&7	;volatile
  3569                           	line	89
  3570                           ;lcd.c: 89: } else {
  3571  00258C  D006               	goto	l155
  3572                           	
  3573  00258E                     l154:
  3574                           	line	90
  3575                           ;lcd.c: 90: LATD = c;
  3576  00258E  C005  FF8C         	movff	(c:lcd_data@c),(c:3980)	;volatile
  3577                           	line	91
  3578                           ;lcd.c: 91: LB1 = 1; asm("nop"); asm("nop"); LB1 = 0;
  3579  002592  828A               	bsf	c:(31825/8),(31825)&7	;volatile
  3580                           # 91 "lcd.c"
  3581  002594  F000               nop ;# 
  3582                           # 91 "lcd.c"
  3583  002596  F000               nop ;# 
  3584                           psect	text10
  3585  002598  928A               	bcf	c:(31825/8),(31825)&7	;volatile
  3586                           	line	92
  3587                           	
  3588  00259A                     l155:
  3589                           	line	93
  3590                           ;lcd.c: 92: }
  3591                           ;lcd.c: 93: LB3 = 0;
  3592  00259A  968A               	bcf	c:(31827/8),(31827)&7	;volatile
  3593                           	line	94
  3594                           	
  3595  00259C                     l156:
  3596  00259C  0012               	return
  3597  00259E  FFFF               	dw	0FFFFh; errata NOP
  3598                           	opt stack 0
  3599                           GLOBAL	__end_of_lcd_data
  3600  0025A0                     	__end_of_lcd_data:
  3601                           	signat	_lcd_data,4216
  3602                           	global	_DelayMs
  3603                           
  3604 ;; *************** function _DelayMs *****************
  3605 ;; Defined at:
  3606 ;;		line 11 in file "delay.c"
  3607 ;; Parameters:    Size  Location     Type
  3608 ;;  cnt             1    0[COMRAM] unsigned char 
  3609 ;; Auto vars:     Size  Location     Type
  3610 ;;  _dcnt           1    3[COMRAM] unsigned char 
  3611 ;;  i               1    2[COMRAM] unsigned char 
  3612 ;; Return value:  Size  Location     Type
  3613 ;;		None               void
  3614 ;; Registers used:
  3615 ;;		wreg, status,2, status,0
  3616 ;; Tracked objects:
  3617 ;;		On entry : 0/0
  3618 ;;		On exit  : 0/0
  3619 ;;		Unchanged: 0/0
  3620 ;; Data sizes:     COMRAM   BANK0   BANK1   BANK2   BANK3   BANK4   BANK5
  3621 ;;      Params:         1       0       0       0       0       0       0
  3622 ;;      Locals:         2       0       0       0       0       0       0
  3623 ;;      Temps:          1       0       0       0       0       0       0
  3624 ;;      Totals:         4       0       0       0       0       0       0
  3625 ;;Total ram usage:        4 bytes
  3626 ;; Hardware stack levels used:    1
  3627 ;; This function calls:
  3628 ;;		Nothing
  3629 ;; This function is called by:
  3630 ;;		_WaitinMilliseconds
  3631 ;;		_lcd_cmd
  3632 ;;		_lcd_data
  3633 ;;		_lcd_init
  3634 ;; This function uses a non-reentrant model
  3635 ;;
  3636                           psect	text11,class=CODE,space=0,reloc=2
  3637                           global __ptext11
  3638  0025A0                     __ptext11:
  3639                           psect	text11
  3640                           	file	"delay.c"
  3641                           	line	11
  3642                           	global	__size_of_DelayMs
  3643  0000                     	__size_of_DelayMs	equ	__end_of_DelayMs-_DelayMs
  3644                           	
  3645  0025A0                     _DelayMs:
  3646                           	opt	stack 29
  3647  0025A0  FFFF               	dw	0FFFFh
  3648                           	line	13
  3649                           	
  3650  0025A2                     l3769:
  3651                           ;delay.c: 12: unsigned char i;
  3652                           ;delay.c: 13: while (cnt--) {
  3653  0025A2  D01E               	goto	l3779
  3654                           	
  3655  0025A4                     l112:
  3656                           	line	14
  3657                           	
  3658  0025A4                     l3771:
  3659                           ;delay.c: 14: i=4;
  3660  0025A4  6E02               	movwf	(??_DelayMs+0+0)&0ffh,c
  3661  0025A6  0E04               	movlw	low(04h)
  3662  0025A8  6E03               	movwf	((c:DelayMs@i)),c
  3663  0025AA  5002               	movf	(??_DelayMs+0+0)&0ffh,c,w
  3664                           	line	15
  3665                           ;delay.c: 15: while(i--) {
  3666  0025AC  D011               	goto	l3777
  3667                           ;delay.c: 16: { unsigned char _dcnt; if(238>=4) _dcnt=(238*((4*1)/(4*1))/2); else _dcnt=
                                 1; while(--_dcnt > 0) { asm("nop"); asm("nop"); continue; } };
  3668                           	
  3669  0025AE                     l114:
  3670                           	line	16
  3671                           	
  3672  0025AE                     l3773:
  3673  0025AE  6E02               	movwf	(??_DelayMs+0+0)&0ffh,c
  3674  0025B0  0E77               	movlw	low(077h)
  3675  0025B2  6E04               	movwf	((c:DelayMs@_dcnt)),c
  3676  0025B4  5002               	movf	(??_DelayMs+0+0)&0ffh,c,w
  3677  0025B6  D008               	goto	l117
  3678                           	
  3679  0025B8                     l115:
  3680                           	
  3681  0025B8                     l3775:
  3682  0025B8  6E02               	movwf	(??_DelayMs+0+0)&0ffh,c
  3683  0025BA  0E01               	movlw	low(01h)
  3684  0025BC  6E04               	movwf	((c:DelayMs@_dcnt)),c
  3685  0025BE  5002               	movf	(??_DelayMs+0+0)&0ffh,c,w
  3686  0025C0  D003               	goto	l117
  3687                           	
  3688  0025C2                     l116:
  3689  0025C2  D002               	goto	l117
  3690                           	
  3691  0025C4                     l118:
  3692                           # 16 "delay.c"
  3693  0025C4  F000               nop ;# 
  3694                           # 16 "delay.c"
  3695  0025C6  F000               nop ;# 
  3696                           psect	text11
  3697                           	
  3698  0025C8                     l117:
  3699  0025C8  2E04               	decfsz	((c:DelayMs@_dcnt)),c
  3700                           	
  3701  0025CA  D7FC               	goto	l118
  3702  0025CC  D001               	goto	l3777
  3703                           	
  3704  0025CE                     l119:
  3705  0025CE  D000               	goto	l3777
  3706                           	line	17
  3707                           	
  3708  0025D0                     l113:
  3709                           	line	15
  3710                           	
  3711  0025D0                     l3777:
  3712  0025D0  0603               	decf	((c:DelayMs@i)),c
  3713  0025D2  2803               	incf	((c:DelayMs@i))&0ffh,w
  3714                           
  3715  0025D4  A4D8               	btfss	status,2
  3716  0025D6  D001               	goto	u2581
  3717  0025D8  D001               	goto	u2580
  3718  0025DA                     u2581:
  3719  0025DA  D7E9               	goto	l3773
  3720  0025DC                     u2580:
  3721  0025DC  D001               	goto	l3779
  3722                           	
  3723  0025DE                     l120:
  3724  0025DE  D000               	goto	l3779
  3725                           	line	18
  3726                           ;delay.c: 17: } ;
  3727                           	
  3728  0025E0                     l111:
  3729                           	line	13
  3730                           	
  3731  0025E0                     l3779:
  3732  0025E0  0601               	decf	((c:DelayMs@cnt)),c
  3733  0025E2  2801               	incf	((c:DelayMs@cnt))&0ffh,w
  3734                           
  3735  0025E4  A4D8               	btfss	status,2
  3736  0025E6  D001               	goto	u2591
  3737  0025E8  D001               	goto	u2590
  3738  0025EA                     u2591:
  3739  0025EA  D7DC               	goto	l3771
  3740  0025EC                     u2590:
  3741  0025EC  D000               	goto	l122
  3742                           	
  3743  0025EE                     l121:
  3744                           	line	19
  3745                           	
  3746  0025EE                     l122:
  3747  0025EE  0012               	return
  3748  0025F0  FFFF               	dw	0FFFFh; errata NOP
  3749                           	opt stack 0
  3750                           GLOBAL	__end_of_DelayMs
  3751  0025F2                     	__end_of_DelayMs:
  3752                           	signat	_DelayMs,4216
  3753                           	global	_sprintf
  3754                           
  3755 ;; *************** function _sprintf *****************
  3756 ;; Defined at:
  3757 ;;		line 492 in file "C:\Program Files\HI-TECH Software\PICC-18\9.80\lib\doprnt.c"
  3758 ;; Parameters:    Size  Location     Type
  3759 ;;  sp              2   68[COMRAM] PTR unsigned char 
  3760 ;;		 -> lcd_putsfloat@crgValue(15), lcd_putsTwoint@crgSecondValue(5), lcd_putsTwoint@crgFirstValue(5), lcd_putsint@crgVa
       lue(15), 
  3761 ;;  f               2   70[COMRAM] PTR const unsigned char 
  3762 ;;		 -> STR_7(3), STR_3(3), STR_2(3), STR_1(3), 
  3763 ;; Auto vars:     Size  Location     Type
  3764 ;;  _val            5   97[COMRAM] struct .
  3765 ;;  fval            3  104[COMRAM] struct .
  3766 ;;  integ           3   92[COMRAM] struct .
  3767 ;;  ival            3    0        struct .
  3768 ;;  exp             2  102[COMRAM] int 
  3769 ;;  prec            2   95[COMRAM] int 
  3770 ;;  flag            2   90[COMRAM] unsigned short 
  3771 ;;  ap              2   88[COMRAM] PTR void [1]
  3772 ;;		 -> ?_sprintf(2), 
  3773 ;;  width           2    0        int 
  3774 ;;  c               1  107[COMRAM] char 
  3775 ;;  d               1    0        unsigned char 
  3776 ;; Return value:  Size  Location     Type
  3777 ;;                  2   68[COMRAM] int 
  3778 ;; Registers used:
  3779 ;;		wreg, fsr2l, fsr2h, status,2, status,0, tblptrl, tblptrh, tblptru, prodl, prodh, cstack
  3780 ;; Tracked objects:
  3781 ;;		On entry : F/0
  3782 ;;		On exit  : 0/0
  3783 ;;		Unchanged: 0/0
  3784 ;; Data sizes:     COMRAM   BANK0   BANK1   BANK2   BANK3   BANK4   BANK5
  3785 ;;      Params:         7       0       0       0       0       0       0
  3786 ;;      Locals:        27       0       0       0       0       0       0
  3787 ;;      Temps:          6       0       0       0       0       0       0
  3788 ;;      Totals:        40       0       0       0       0       0       0
  3789 ;;Total ram usage:       40 bytes
  3790 ;; Hardware stack levels used:    1
  3791 ;; Hardware stack levels required when called:    4
  3792 ;; This function calls:
  3793 ;;		___ftneg
  3794 ;;		___wmul
  3795 ;;		___awdiv
  3796 ;;		_scale
  3797 ;;		___asftmul
  3798 ;;		___ftge
  3799 ;;		_fround
  3800 ;;		___asftadd
  3801 ;;		___fttol
  3802 ;;		__div_to_l_
  3803 ;;		__tdiv_to_l_
  3804 ;;		___lltoft
  3805 ;;		___asftsub
  3806 ;;		___lldiv
  3807 ;;		___llmod
  3808 ;;		___ftmul
  3809 ;; This function is called by:
  3810 ;;		_lcd_putsTwoint
  3811 ;;		_lcd_putsint
  3812 ;;		_lcd_putsfloat
  3813 ;; This function uses a non-reentrant model
  3814 ;;
  3815                           psect	text12,class=CODE,space=0,reloc=2
  3816                           global __ptext12
  3817  000688                     __ptext12:
  3818                           psect	text12
  3819                           	file	"C:\Program Files\HI-TECH Software\PICC-18\9.80\sources\doprnt.c"
  3820                           	line	492
  3821                           	global	__size_of_sprintf
  3822  0000                     	__size_of_sprintf	equ	__end_of_sprintf-_sprintf
  3823                           	
  3824  000688                     _sprintf:
  3825                           	opt	stack 25
  3826  000688  FFFF               	dw	0FFFFh
  3827                           	line	541
  3828                           	
  3829  00068A                     l4599:; BSR set to: 0
  3830                           
  3831  00068A  0E00               	movlw	high((c:?_sprintf)+04h)
  3832  00068C  6E5A               	movwf	((c:sprintf@ap+1)),c
  3833  00068E  0E49               	movlw	low((c:?_sprintf)+04h)
  3834  000690  6E59               	movwf	((c:sprintf@ap)),c
  3835                           	line	544
  3836  000692  EF53  F007         	goto	l4797
  3837                           	
  3838  000696                     l219:
  3839                           	line	546
  3840                           	
  3841  000696                     l4601:
  3842  000696  506C               	movf	((c:sprintf@c)),c,w
  3843  000698  0A25               	xorlw	37
  3844                           
  3845  00069A  B4D8               	btfsc	status,2
  3846  00069C  D001               	goto	u3691
  3847  00069E  D001               	goto	u3690
  3848  0006A0                     u3691:
  3849  0006A0  D009               	goto	l4607
  3850  0006A2                     u3690:
  3851                           	line	549
  3852                           	
  3853  0006A2                     l4603:
  3854  0006A2  C045  FFD9         	movff	(c:sprintf@sp),fsr2l
  3855  0006A6  C046  FFDA         	movff	(c:sprintf@sp+1),fsr2h
  3856  0006AA  C06C  FFDF         	movff	(c:sprintf@c),indf2
  3857                           
  3858                           	
  3859  0006AE                     l4605:
  3860  0006AE  4A45               	infsnz	((c:sprintf@sp)),c
  3861  0006B0  2A46               	incf	((c:sprintf@sp+1)),c
  3862                           	line	550
  3863  0006B2  D3F9               	goto	l4797
  3864                           	line	551
  3865                           	
  3866  0006B4                     l220:
  3867                           	line	556
  3868                           	
  3869  0006B4                     l4607:
  3870  0006B4  0E00               	movlw	high(0)
  3871  0006B6  6E5C               	movwf	((c:sprintf@flag+1)),c
  3872  0006B8  0E00               	movlw	low(0)
  3873  0006BA  6E5B               	movwf	((c:sprintf@flag)),c
  3874                           	line	642
  3875  0006BC  D008               	goto	l4613
  3876                           	line	644
  3877                           	
  3878  0006BE                     l222:
  3879                           	line	645
  3880  0006BE  EF64  F007         	goto	l4799
  3881                           	line	669
  3882                           	
  3883  0006C2                     l224:
  3884                           	line	670
  3885                           	
  3886  0006C2                     l4609:
  3887  0006C2  845C               	bsf	(0+(10/8)+(c:sprintf@flag)),c,(10)&7
  3888                           	line	671
  3889  0006C4  D01C               	goto	l4615
  3890                           	line	704
  3891                           	
  3892  0006C6                     l226:
  3893  0006C6  D01B               	goto	l4615
  3894                           	line	705
  3895                           	
  3896  0006C8                     l227:
  3897                           	line	706
  3898  0006C8  D01A               	goto	l4615
  3899                           	line	809
  3900                           	
  3901  0006CA                     l228:
  3902                           	line	820
  3903  0006CA  D3ED               	goto	l4797
  3904                           	line	829
  3905                           	
  3906  0006CC                     l4611:
  3907  0006CC  D018               	goto	l4615
  3908                           	line	642
  3909                           	
  3910  0006CE                     l221:
  3911                           	
  3912  0006CE                     l4613:
  3913  0006CE  C047  FFF6         	movff	(c:sprintf@f),tblptrl
  3914  0006D2  C048  FFF7         	movff	(c:sprintf@f+1),tblptrh
  3915  0006D6  4A47               	infsnz	((c:sprintf@f)),c
  3916  0006D8  2A48               	incf	((c:sprintf@f+1)),c
  3917  0006DA  0008               	tblrd	*
  3918  0006DC  FFFF               		dw	0FFFFh; errata NOP
  3919                           
  3920  0006DE  CFF5 F06C          	movff	tablat,(c:sprintf@c)
  3921  0006E2  506C               	movf	((c:sprintf@c))&0ffh,w
  3922                           	; Switch size 1, requested type "space"
  3923                           ; Number of cases is 4, Range of values is 0 to 105
  3924                           ; switch strategies available:
  3925                           ; Name         Instructions Cycles
  3926                           ; simple_byte           13     7 (average)
  3927                           ;	Chosen strategy is simple_byte
  3928                           
  3929  0006E4  0A00               	xorlw	0^0	; case 0
  3930  0006E6  B4D8               	skipnz
  3931  0006E8  D3EF               	goto	l4799
  3932  0006EA  0A64               	xorlw	100^0	; case 100
  3933  0006EC  B4D8               	skipnz
  3934  0006EE  D007               	goto	l4615
  3935  0006F0  0A02               	xorlw	102^100	; case 102
  3936  0006F2  B4D8               	skipnz
  3937  0006F4  D7E6               	goto	l4609
  3938  0006F6  0A0F               	xorlw	105^102	; case 105
  3939  0006F8  B4D8               	skipnz
  3940  0006FA  D001               	goto	l4615
  3941  0006FC  D3D4               	goto	l4797
  3942                           
  3943                           	line	829
  3944                           	
  3945  0006FE                     l225:
  3946                           	line	832
  3947                           	
  3948  0006FE                     l4615:
  3949  0006FE  0E07               	movlw	high(0700h)
  3950  000700  145C               	andwf	((c:sprintf@flag+1)),c,w
  3951                           
  3952  000702  B4D8               	btfsc	status,2
  3953  000704  D001               	goto	u3701
  3954  000706  D001               	goto	u3700
  3955  000708                     u3701:
  3956  000708  D311               	goto	l4757
  3957  00070A                     u3700:
  3958                           	line	836
  3959                           	
  3960  00070A                     l4617:
  3961  00070A  0E00               	movlw	high(06h)
  3962  00070C  6E61               	movwf	((c:sprintf@prec+1)),c
  3963  00070E  0E06               	movlw	low(06h)
  3964  000710  6E60               	movwf	((c:sprintf@prec)),c
  3965                           	line	837
  3966                           	
  3967  000712                     l4619:
  3968  000712  C059  FFD9         	movff	(c:sprintf@ap),fsr2l
  3969  000716  C05A  FFDA         	movff	(c:sprintf@ap+1),fsr2h
  3970  00071A  CFDE F069          	movff	postinc2,(c:sprintf@fval)
  3971  00071E  CFDE F06A          	movff	postinc2,(c:sprintf@fval+1)
  3972  000722  CFDD F06B          	movff	postdec2,(c:sprintf@fval+2)
  3973                           	
  3974  000726                     l4621:
  3975  000726  0E03               	movlw	03h
  3976  000728  2659               	addwf	((c:sprintf@ap)),c
  3977  00072A  0E00               	movlw	0
  3978  00072C  225A               	addwfc	((c:sprintf@ap+1)),c
  3979                           	line	838
  3980                           	
  3981  00072E                     l4623:
  3982  00072E  506B               	movf	((c:sprintf@fval+2)),c,w
  3983  000730  0A80               	xorlw	80h
  3984  000732  0F80               	addlw	-(low highword(float24(0.0000000000000000)))^80h
  3985                           	
  3986  000734  E105               	bnz	u3715
  3987  000736  0E00               	movlw	high(float24(0.0000000000000000))
  3988  000738  5C6A               	subwf	((c:sprintf@fval+1)),c,w
  3989  00073A  E102               	bnz	u3715
  3990  00073C  0E00               	movlw	low(float24(0.0000000000000000))
  3991  00073E  5C69               	subwf	((c:sprintf@fval)),c,w
  3992  000740                     u3715:
  3993  000740  B0D8               	btfsc	status,0
  3994  000742  D001               	goto	u3711
  3995  000744  D001               	goto	u3710
  3996  000746                     u3711:
  3997  000746  D011               	goto	l4629
  3998  000748                     u3710:
  3999                           	line	839
  4000                           	
  4001  000748                     l4625:
  4002  000748  C069  F001         	movff	(c:sprintf@fval),(c:?___ftneg)
  4003  00074C  C06A  F002         	movff	(c:sprintf@fval+1),(c:?___ftneg+1)
  4004  000750  C06B  F003         	movff	(c:sprintf@fval+2),(c:?___ftneg+2)
  4005  000754  EC13  F014         	call	___ftneg	;wreg free
  4006  000758  C001  F069         	movff	0+?___ftneg,(c:sprintf@fval)
  4007  00075C  C002  F06A         	movff	1+?___ftneg,(c:sprintf@fval+1)
  4008  000760  C003  F06B         	movff	2+?___ftneg,(c:sprintf@fval+2)
  4009                           	line	840
  4010                           	
  4011  000764                     l4627:
  4012  000764  0E03               	movlw	03h
  4013  000766  125B               	iorwf	((c:sprintf@flag)),c
  4014  000768  D000               	goto	l4629
  4015                           	line	841
  4016                           	
  4017  00076A                     l230:
  4018                           	line	842
  4019                           	
  4020  00076A                     l4629:
  4021  00076A  0E00               	movlw	high(0)
  4022  00076C  6E68               	movwf	((c:sprintf@exp+1)),c
  4023  00076E  0E00               	movlw	low(0)
  4024  000770  6E67               	movwf	((c:sprintf@exp)),c
  4025                           	line	843
  4026                           	
  4027  000772                     l4631:
  4028  000772  0E7F               	movlw	0x7f
  4029  000774  146B               	andwf	((c:sprintf@fval+2)),c,w
  4030  000776  106A               	iorwf	((c:sprintf@fval+1)),c,w
  4031  000778  1069               	iorwf	((c:sprintf@fval)),c,w
  4032  00077A  B4D8               	btfsc	status,2
  4033  00077C  D001               	goto	u3721
  4034  00077E  D001               	goto	u3720
  4035  000780                     u3721:
  4036  000780  D086               	goto	l4657
  4037  000782                     u3720:
  4038                           	line	844
  4039                           	
  4040  000782                     l4633:
  4041  000782  0E82               	movlw	low(-126)
  4042  000784  6E4C               	movwf	(??_sprintf+0+0)&0ffh,c
  4043  000786  0EFF               	movlw	high(-126)
  4044  000788  6E4D               	movwf	(??_sprintf+0+0+1)&0ffh,c
  4045  00078A  C069  F04E         	movff	0+((c:sprintf@fval)),??_sprintf+2+0
  4046  00078E  C06A  F04F         	movff	1+((c:sprintf@fval)),??_sprintf+2+0+1
  4047  000792  C06B  F050         	movff	2+((c:sprintf@fval)),??_sprintf+2+0+2
  4048  000796  C06C  F051         	movff	3+((c:sprintf@fval)),??_sprintf+2+0+3
  4049  00079A  0E10               	movlw	0Fh+1
  4050  00079C  D005               	goto	u3730
  4051  00079E                     u3735:
  4052  00079E  90D8               	bcf	status,0
  4053  0007A0  3251               	rrcf	(??_sprintf+2+3),c
  4054  0007A2  3250               	rrcf	(??_sprintf+2+2),c
  4055  0007A4  324F               	rrcf	(??_sprintf+2+1),c
  4056  0007A6  324E               	rrcf	(??_sprintf+2+0),c
  4057  0007A8                     u3730:
  4058  0007A8  2EE8               	decfsz	wreg
  4059  0007AA  D7F9               	goto	u3735
  4060  0007AC  504E               	movf	(??_sprintf+2+0),c,w
  4061  0007AE  244C               	addwf	(??_sprintf+0+0),c,w
  4062                           	
  4063  0007B0  6E67               	movwf	((c:sprintf@exp)),c
  4064  0007B2  0E00               	movlw	0
  4065  0007B4  204D               	addwfc	(??_sprintf+0+1),c,w
  4066  0007B6  6E68               	movwf	1+((c:sprintf@exp)),c
  4067                           	line	845
  4068                           	
  4069  0007B8                     l4635:
  4070  0007B8  0667               	decf	((c:sprintf@exp)),c
  4071  0007BA  A0D8               	btfss	status,0
  4072  0007BC  0668               	decf	((c:sprintf@exp+1)),c
  4073                           	line	846
  4074                           	
  4075  0007BE                     l4637:
  4076  0007BE  C067  F001         	movff	(c:sprintf@exp),(c:?___wmul)
  4077  0007C2  C068  F002         	movff	(c:sprintf@exp+1),(c:?___wmul+1)
  4078  0007C6  0E00               	movlw	high(03h)
  4079  0007C8  6E04               	movwf	(1+((c:?___wmul)+02h)),c
  4080  0007CA  0E03               	movlw	low(03h)
  4081  0007CC  6E03               	movwf	(0+((c:?___wmul)+02h)),c
  4082  0007CE  EC3F  F013         	call	___wmul	;wreg free
  4083  0007D2  C001  F067         	movff	0+?___wmul,(c:sprintf@exp)
  4084  0007D6  C002  F068         	movff	1+?___wmul,(c:sprintf@exp+1)
  4085                           	line	847
  4086                           	
  4087  0007DA                     l4639:
  4088  0007DA  C067  F008         	movff	(c:sprintf@exp),(c:?___awdiv)
  4089  0007DE  C068  F009         	movff	(c:sprintf@exp+1),(c:?___awdiv+1)
  4090  0007E2  0E00               	movlw	high(0Ah)
  4091  0007E4  6E0B               	movwf	(1+((c:?___awdiv)+02h)),c
  4092  0007E6  0E0A               	movlw	low(0Ah)
  4093  0007E8  6E0A               	movwf	(0+((c:?___awdiv)+02h)),c
  4094  0007EA  EC96  F010         	call	___awdiv	;wreg free
  4095  0007EE  C008  F067         	movff	0+?___awdiv,(c:sprintf@exp)
  4096  0007F2  C009  F068         	movff	1+?___awdiv,(c:sprintf@exp+1)
  4097                           	line	848
  4098                           	
  4099  0007F6                     l4641:
  4100  0007F6  AE68               	btfss	((c:sprintf@exp+1)),c,7
  4101  0007F8  D001               	goto	u3741
  4102  0007FA  D001               	goto	u3740
  4103  0007FC                     u3741:
  4104  0007FC  D004               	goto	l4645
  4105  0007FE                     u3740:
  4106                           	line	849
  4107                           	
  4108  0007FE                     l4643:
  4109  0007FE  0667               	decf	((c:sprintf@exp)),c
  4110  000800  A0D8               	btfss	status,0
  4111  000802  0668               	decf	((c:sprintf@exp+1)),c
  4112  000804  D000               	goto	l4645
  4113                           	
  4114  000806                     l232:
  4115                           	line	853
  4116                           	
  4117  000806                     l4645:
  4118  000806  5067               	movf	((c:sprintf@exp)),c,w
  4119  000808  0800               	sublw	0
  4120  00080A  6E31               	movwf	((c:?_scale)),c
  4121  00080C  EC6D  F007         	call	_scale	;wreg free
  4122  000810  C031  F05D         	movff	0+?_scale,(c:sprintf@integ)
  4123  000814  C032  F05E         	movff	1+?_scale,(c:sprintf@integ+1)
  4124  000818  C033  F05F         	movff	2+?_scale,(c:sprintf@integ+2)
  4125                           	line	854
  4126                           	
  4127  00081C                     l4647:
  4128  00081C  0E00               	movlw	high((c:sprintf@integ))
  4129  00081E  6E32               	movwf	((c:?___asftmul+1)),c
  4130  000820  0E5D               	movlw	low((c:sprintf@integ))
  4131  000822  6E31               	movwf	((c:?___asftmul)),c
  4132  000824  C069  F033         	movff	(c:sprintf@fval),0+((c:?___asftmul)+02h)
  4133  000828  C06A  F034         	movff	(c:sprintf@fval+1),1+((c:?___asftmul)+02h)
  4134  00082C  C06B  F035         	movff	(c:sprintf@fval+2),2+((c:?___asftmul)+02h)
  4135  000830  EC81  F013         	call	___asftmul	;wreg free
  4136                           	line	855
  4137                           	
  4138  000834                     l4649:
  4139  000834  C05D  F001         	movff	(c:sprintf@integ),(c:?___ftge)
  4140  000838  C05E  F002         	movff	(c:sprintf@integ+1),(c:?___ftge+1)
  4141  00083C  C05F  F003         	movff	(c:sprintf@integ+2),(c:?___ftge+2)
  4142  000840  0E00               	movlw	low(float24(1.0000000000000000))
  4143  000842  6E04               	movwf	(0+((c:?___ftge)+03h)),c
  4144  000844  0E80               	movlw	high(float24(1.0000000000000000))
  4145  000846  6E05               	movwf	(1+((c:?___ftge)+03h)),c
  4146  000848  0E3F               	movlw	low highword(float24(1.0000000000000000))
  4147  00084A  6E06               	movwf	(2+((c:?___ftge)+03h)),c
  4148                           
  4149  00084C  EC4C  F011         	call	___ftge	;wreg free
  4150  000850  B0D8               	btfsc	status,0
  4151  000852  D001               	goto	u3751
  4152  000854  D001               	goto	u3750
  4153  000856                     u3751:
  4154  000856  D004               	goto	l4653
  4155  000858                     u3750:
  4156                           	line	856
  4157                           	
  4158  000858                     l4651:
  4159  000858  0667               	decf	((c:sprintf@exp)),c
  4160  00085A  A0D8               	btfss	status,0
  4161  00085C  0668               	decf	((c:sprintf@exp+1)),c
  4162  00085E  D017               	goto	l4657
  4163                           	line	857
  4164                           	
  4165  000860                     l233:
  4166                           	
  4167  000860                     l4653:
  4168  000860  C05D  F001         	movff	(c:sprintf@integ),(c:?___ftge)
  4169  000864  C05E  F002         	movff	(c:sprintf@integ+1),(c:?___ftge+1)
  4170  000868  C05F  F003         	movff	(c:sprintf@integ+2),(c:?___ftge+2)
  4171  00086C  0E00               	movlw	low(float24(10.000000000000000))
  4172  00086E  6E04               	movwf	(0+((c:?___ftge)+03h)),c
  4173  000870  0E20               	movlw	high(float24(10.000000000000000))
  4174  000872  6E05               	movwf	(1+((c:?___ftge)+03h)),c
  4175  000874  0E41               	movlw	low highword(float24(10.000000000000000))
  4176  000876  6E06               	movwf	(2+((c:?___ftge)+03h)),c
  4177                           
  4178  000878  EC4C  F011         	call	___ftge	;wreg free
  4179  00087C  A0D8               	btfss	status,0
  4180  00087E  D001               	goto	u3761
  4181  000880  D001               	goto	u3760
  4182  000882                     u3761:
  4183  000882  D005               	goto	l4657
  4184  000884                     u3760:
  4185                           	line	858
  4186                           	
  4187  000884                     l4655:
  4188  000884  4A67               	infsnz	((c:sprintf@exp)),c
  4189  000886  2A68               	incf	((c:sprintf@exp+1)),c
  4190  000888  D002               	goto	l4657
  4191                           	
  4192  00088A                     l235:
  4193  00088A  D001               	goto	l4657
  4194                           	line	859
  4195                           	
  4196  00088C                     l234:
  4197  00088C  D000               	goto	l4657
  4198                           	
  4199  00088E                     l231:
  4200                           	line	1119
  4201                           	
  4202  00088E                     l4657:
  4203  00088E  5061               	movf	((c:sprintf@prec+1)),c,w
  4204  000890  0A80               	xorlw	80h
  4205  000892  0F80               	addlw	-((0)^80h)
  4206  000894  0E0D               	movlw	0Dh
  4207  000896  B4D8               	btfsc	status,2
  4208  000898  5C60               	subwf	((c:sprintf@prec)),c,w
  4209  00089A  B0D8               	btfsc	status,0
  4210  00089C  D001               	goto	u3771
  4211  00089E  D001               	goto	u3770
  4212  0008A0                     u3771:
  4213  0008A0  D011               	goto	l4661
  4214  0008A2                     u3770:
  4215                           	line	1120
  4216                           	
  4217  0008A2                     l4659:
  4218  0008A2  0E00               	movlw	high((c:sprintf@fval))
  4219  0008A4  6E41               	movwf	((c:?___asftadd+1)),c
  4220  0008A6  0E69               	movlw	low((c:sprintf@fval))
  4221  0008A8  6E40               	movwf	((c:?___asftadd)),c
  4222  0008AA  C060  F031         	movff	(c:sprintf@prec),(c:?_fround)
  4223  0008AE  EC9C  F009         	call	_fround	;wreg free
  4224  0008B2  C031  F042         	movff	0+?_fround,0+((c:?___asftadd)+02h)
  4225  0008B6  C032  F043         	movff	1+?_fround,1+((c:?___asftadd)+02h)
  4226  0008BA  C033  F044         	movff	2+?_fround,2+((c:?___asftadd)+02h)
  4227  0008BE  EC60  F013         	call	___asftadd	;wreg free
  4228  0008C2  D000               	goto	l4661
  4229                           	
  4230  0008C4                     l236:
  4231                           	line	1123
  4232                           	
  4233  0008C4                     l4661:
  4234  0008C4  5068               	movf	((c:sprintf@exp+1)),c,w
  4235  0008C6  0A80               	xorlw	80h
  4236  0008C8  0F80               	addlw	-((0)^80h)
  4237  0008CA  0E0A               	movlw	0Ah
  4238  0008CC  B4D8               	btfsc	status,2
  4239  0008CE  5C67               	subwf	((c:sprintf@exp)),c,w
  4240  0008D0  B0D8               	btfsc	status,0
  4241  0008D2  D001               	goto	u3781
  4242  0008D4  D001               	goto	u3780
  4243  0008D6                     u3781:
  4244  0008D6  D023               	goto	l4669
  4245  0008D8                     u3780:
  4246                           	
  4247  0008D8                     l4663:
  4248  0008D8  0E7F               	movlw	0x7f
  4249  0008DA  146B               	andwf	((c:sprintf@fval+2)),c,w
  4250  0008DC  106A               	iorwf	((c:sprintf@fval+1)),c,w
  4251  0008DE  1069               	iorwf	((c:sprintf@fval)),c,w
  4252  0008E0  B4D8               	btfsc	status,2
  4253  0008E2  D001               	goto	u3791
  4254  0008E4  D001               	goto	u3790
  4255  0008E6                     u3791:
  4256  0008E6  D07F               	goto	l4685
  4257  0008E8                     u3790:
  4258                           	
  4259  0008E8                     l4665:
  4260  0008E8  C069  F011         	movff	(c:sprintf@fval),(c:?___fttol)
  4261  0008EC  C06A  F012         	movff	(c:sprintf@fval+1),(c:?___fttol+1)
  4262  0008F0  C06B  F013         	movff	(c:sprintf@fval+2),(c:?___fttol+2)
  4263  0008F4  EC0B  F00E         	call	___fttol	;wreg free
  4264  0008F8  5014               	movf	(3+?___fttol),c,w
  4265  0008FA  1011               	iorwf (0+?___fttol),c,w
  4266  0008FC  1012               	iorwf (1+?___fttol),c,w
  4267  0008FE  1013               	iorwf (2+?___fttol),c,w
  4268                           
  4269  000900  A4D8               	btfss	status,2
  4270  000902  D001               	goto	u3801
  4271  000904  D001               	goto	u3800
  4272  000906                     u3801:
  4273  000906  D06F               	goto	l4685
  4274  000908                     u3800:
  4275                           	
  4276  000908                     l4667:
  4277  000908  5068               	movf	((c:sprintf@exp+1)),c,w
  4278  00090A  0A80               	xorlw	80h
  4279  00090C  0F80               	addlw	-((0)^80h)
  4280  00090E  0E02               	movlw	02h
  4281  000910  B4D8               	btfsc	status,2
  4282  000912  5C67               	subwf	((c:sprintf@exp)),c,w
  4283  000914  A0D8               	btfss	status,0
  4284  000916  D001               	goto	u3811
  4285  000918  D001               	goto	u3810
  4286  00091A                     u3811:
  4287  00091A  D065               	goto	l4685
  4288  00091C                     u3810:
  4289  00091C  D000               	goto	l4669
  4290                           	
  4291  00091E                     l239:
  4292                           	line	1127
  4293                           	
  4294  00091E                     l4669:
  4295  00091E  C05D  F001         	movff	(c:sprintf@integ),(c:?___ftge)
  4296  000922  C05E  F002         	movff	(c:sprintf@integ+1),(c:?___ftge+1)
  4297  000926  C05F  F003         	movff	(c:sprintf@integ+2),(c:?___ftge+2)
  4298  00092A  0E70               	movlw	low(float24(4.2949672960000003))
  4299  00092C  6E04               	movwf	(0+((c:?___ftge)+03h)),c
  4300  00092E  0E89               	movlw	high(float24(4.2949672960000003))
  4301  000930  6E05               	movwf	(1+((c:?___ftge)+03h)),c
  4302  000932  0E40               	movlw	low highword(float24(4.2949672960000003))
  4303  000934  6E06               	movwf	(2+((c:?___ftge)+03h)),c
  4304                           
  4305  000936  EC4C  F011         	call	___ftge	;wreg free
  4306  00093A  B0D8               	btfsc	status,0
  4307  00093C  D001               	goto	u3821
  4308  00093E  D001               	goto	u3820
  4309  000940                     u3821:
  4310  000940  D005               	goto	l4673
  4311  000942                     u3820:
  4312                           	line	1128
  4313                           	
  4314  000942                     l4671:
  4315  000942  0EF7               	movlw	low(-9)
  4316  000944  2667               	addwf	((c:sprintf@exp)),c
  4317  000946  0EFF               	movlw	high(-9)
  4318  000948  2268               	addwfc	((c:sprintf@exp+1)),c
  4319                           	line	1129
  4320  00094A  D005               	goto	l4675
  4321                           	
  4322  00094C                     l240:
  4323                           	line	1130
  4324                           	
  4325  00094C                     l4673:
  4326  00094C  0EF8               	movlw	low(-8)
  4327  00094E  2667               	addwf	((c:sprintf@exp)),c
  4328  000950  0EFF               	movlw	high(-8)
  4329  000952  2268               	addwfc	((c:sprintf@exp+1)),c
  4330  000954  D000               	goto	l4675
  4331                           	line	1131
  4332                           	
  4333  000956                     l241:
  4334                           	line	1132
  4335                           	
  4336  000956                     l4675:
  4337  000956  C067  F031         	movff	(c:sprintf@exp),(c:?_scale)
  4338  00095A  EC6D  F007         	call	_scale	;wreg free
  4339  00095E  C031  F05D         	movff	0+?_scale,(c:sprintf@integ)
  4340  000962  C032  F05E         	movff	1+?_scale,(c:sprintf@integ+1)
  4341  000966  C033  F05F         	movff	2+?_scale,(c:sprintf@integ+2)
  4342                           	line	1133
  4343  00096A  D017               	goto	l4679
  4344                           	
  4345  00096C                     l4677:
  4346  00096C  C069  F001         	movff	(c:sprintf@fval),(c:?__div_to_l_)
  4347  000970  C06A  F002         	movff	(c:sprintf@fval+1),(c:?__div_to_l_+1)
  4348  000974  C06B  F003         	movff	(c:sprintf@fval+2),(c:?__div_to_l_+2)
  4349  000978  C05D  F004         	movff	(c:sprintf@integ),0+((c:?__div_to_l_)+03h)
  4350  00097C  C05E  F005         	movff	(c:sprintf@integ+1),1+((c:?__div_to_l_)+03h)
  4351  000980  C05F  F006         	movff	(c:sprintf@integ+2),2+((c:?__div_to_l_)+03h)
  4352  000984  ECBD  F00C         	call	__div_to_l_	;wreg free
  4353  000988  C001  F055         	movff	0+?__div_to_l_,(c:_sprintf$344)
  4354  00098C  C002  F056         	movff	1+?__div_to_l_,(c:_sprintf$344+1)
  4355  000990  C003  F057         	movff	2+?__div_to_l_,(c:_sprintf$344+2)
  4356  000994  C004  F058         	movff	3+?__div_to_l_,(c:_sprintf$344+3)
  4357  000998  D017               	goto	l4681
  4358                           	
  4359  00099A                     l243:
  4360                           	
  4361  00099A                     l4679:
  4362  00099A  C069  F001         	movff	(c:sprintf@fval),(c:?__tdiv_to_l_)
  4363  00099E  C06A  F002         	movff	(c:sprintf@fval+1),(c:?__tdiv_to_l_+1)
  4364  0009A2  C06B  F003         	movff	(c:sprintf@fval+2),(c:?__tdiv_to_l_+2)
  4365  0009A6  C05D  F004         	movff	(c:sprintf@integ),0+((c:?__tdiv_to_l_)+03h)
  4366  0009AA  C05E  F005         	movff	(c:sprintf@integ+1),1+((c:?__tdiv_to_l_)+03h)
  4367  0009AE  C05F  F006         	movff	(c:sprintf@integ+2),2+((c:?__tdiv_to_l_)+03h)
  4368  0009B2  ECF9  F00B         	call	__tdiv_to_l_	;wreg free
  4369  0009B6  C001  F055         	movff	0+?__tdiv_to_l_,(c:_sprintf$344)
  4370  0009BA  C002  F056         	movff	1+?__tdiv_to_l_,(c:_sprintf$344+1)
  4371  0009BE  C003  F057         	movff	2+?__tdiv_to_l_,(c:_sprintf$344+2)
  4372  0009C2  C004  F058         	movff	3+?__tdiv_to_l_,(c:_sprintf$344+3)
  4373  0009C6  D000               	goto	l4681
  4374                           	
  4375  0009C8                     l245:
  4376                           	
  4377  0009C8                     l4681:
  4378  0009C8  C055  F062         	movff	(c:_sprintf$344),(c:sprintf@_val)
  4379  0009CC  C056  F063         	movff	(c:_sprintf$344+1),(c:sprintf@_val+1)
  4380  0009D0  C057  F064         	movff	(c:_sprintf$344+2),(c:sprintf@_val+2)
  4381  0009D4  C058  F065         	movff	(c:_sprintf$344+3),(c:sprintf@_val+3)
  4382                           	line	1136
  4383                           	
  4384  0009D8                     l4683:
  4385  0009D8  0E00               	movlw	low(float24(0.0000000000000000))
  4386  0009DA  6E69               	movwf	((c:sprintf@fval)),c
  4387  0009DC  0E00               	movlw	high(float24(0.0000000000000000))
  4388  0009DE  6E6A               	movwf	((c:sprintf@fval+1)),c
  4389  0009E0  0E00               	movlw	low highword(float24(0.0000000000000000))
  4390  0009E2  6E6B               	movwf	((c:sprintf@fval+2)),c
  4391                           
  4392                           	line	1137
  4393  0009E4  D02B               	goto	l4691
  4394                           	
  4395  0009E6                     l237:
  4396                           	line	1138
  4397                           	
  4398  0009E6                     l4685:
  4399  0009E6  C069  F011         	movff	(c:sprintf@fval),(c:?___fttol)
  4400  0009EA  C06A  F012         	movff	(c:sprintf@fval+1),(c:?___fttol+1)
  4401  0009EE  C06B  F013         	movff	(c:sprintf@fval+2),(c:?___fttol+2)
  4402  0009F2  EC0B  F00E         	call	___fttol	;wreg free
  4403  0009F6  C011  F062         	movff	0+?___fttol,(c:sprintf@_val)
  4404  0009FA  C012  F063         	movff	1+?___fttol,(c:sprintf@_val+1)
  4405  0009FE  C013  F064         	movff	2+?___fttol,(c:sprintf@_val+2)
  4406  000A02  C014  F065         	movff	3+?___fttol,(c:sprintf@_val+3)
  4407                           	line	1139
  4408                           	
  4409  000A06                     l4687:
  4410  000A06  0E00               	movlw	high((c:sprintf@fval))
  4411  000A08  6E1E               	movwf	((c:?___asftsub+1)),c
  4412  000A0A  0E69               	movlw	low((c:sprintf@fval))
  4413  000A0C  6E1D               	movwf	((c:?___asftsub)),c
  4414  000A0E  C062  F009         	movff	(c:sprintf@_val),(c:?___lltoft)
  4415  000A12  C063  F00A         	movff	(c:sprintf@_val+1),(c:?___lltoft+1)
  4416  000A16  C064  F00B         	movff	(c:sprintf@_val+2),(c:?___lltoft+2)
  4417  000A1A  C065  F00C         	movff	(c:sprintf@_val+3),(c:?___lltoft+3)
  4418  000A1E  EC6D  F012         	call	___lltoft	;wreg free
  4419  000A22  C009  F01F         	movff	0+?___lltoft,0+((c:?___asftsub)+02h)
  4420  000A26  C00A  F020         	movff	1+?___lltoft,1+((c:?___asftsub)+02h)
  4421  000A2A  C00B  F021         	movff	2+?___lltoft,2+((c:?___asftsub)+02h)
  4422  000A2E  EC1E  F013         	call	___asftsub	;wreg free
  4423                           	line	1140
  4424                           	
  4425  000A32                     l4689:
  4426  000A32  0E00               	movlw	high(0)
  4427  000A34  6E68               	movwf	((c:sprintf@exp+1)),c
  4428  000A36  0E00               	movlw	low(0)
  4429  000A38  6E67               	movwf	((c:sprintf@exp)),c
  4430  000A3A  D000               	goto	l4691
  4431                           	line	1141
  4432                           	
  4433  000A3C                     l246:
  4434                           	line	1143
  4435                           	
  4436  000A3C                     l4691:
  4437  000A3C  6E4C               	movwf	(??_sprintf+0+0)&0ffh,c
  4438  000A3E  0E01               	movlw	low(01h)
  4439  000A40  6E6C               	movwf	((c:sprintf@c)),c
  4440  000A42  504C               	movf	(??_sprintf+0+0)&0ffh,c,w
  4441                           	
  4442  000A44                     l4693:
  4443  000A44  506C               	movf	((c:sprintf@c)),c,w
  4444  000A46  0A0A               	xorlw	10
  4445                           
  4446  000A48  A4D8               	btfss	status,2
  4447  000A4A  D001               	goto	u3831
  4448  000A4C  D001               	goto	u3830
  4449  000A4E                     u3831:
  4450  000A4E  D002               	goto	l4697
  4451  000A50                     u3830:
  4452  000A50  D027               	goto	l4705
  4453                           	
  4454  000A52                     l4695:
  4455  000A52  D026               	goto	l4705
  4456                           	line	1144
  4457                           	
  4458  000A54                     l247:
  4459                           	
  4460  000A54                     l4697:
  4461  000A54  506C               	movf	((c:sprintf@c)),c,w
  4462  000A56  0D04               	mullw	04h
  4463  000A58  0E00               	movlw	low((_dpowers))
  4464  000A5A  24F3               	addwf	(prodl),c,w
  4465  000A5C  6EF6               	movwf	tblptrl
  4466  000A5E  6AF7               	clrf	tblptrh
  4467  000A60  0E06               	movlw	high((_dpowers))
  4468  000A62  22F7               	addwfc	tblptrh
  4469  000A64  0009               	tblrd	*+
  4470  000A66  FFFF               		dw	0FFFFh; errata NOP
  4471                           
  4472  000A68  50F5               	movf	tablat,w
  4473  000A6A  5C62               	subwf	((c:sprintf@_val)),c,w
  4474  000A6C  0009               	tblrd	*+
  4475  000A6E  FFFF               		dw	0FFFFh; errata NOP
  4476                           
  4477  000A70  50F5               	movf	tablat,w
  4478  000A72  5863               	subwfb	((c:sprintf@_val+1)),c,w
  4479  000A74  0009               	tblrd	*+
  4480  000A76  FFFF               		dw	0FFFFh; errata NOP
  4481                           
  4482  000A78  50F5               	movf	tablat,w
  4483  000A7A  5864               	subwfb	((c:sprintf@_val+2)),c,w
  4484  000A7C  0009               	tblrd	*+
  4485  000A7E  FFFF               		dw	0FFFFh; errata NOP
  4486                           
  4487  000A80  50F5               	movf	tablat,w
  4488  000A82  5865               	subwfb	((c:sprintf@_val+3)),c,w
  4489  000A84  B0D8               	btfsc	status,0
  4490  000A86  D001               	goto	u3841
  4491  000A88  D001               	goto	u3840
  4492  000A8A                     u3841:
  4493  000A8A  D002               	goto	l4701
  4494  000A8C                     u3840:
  4495  000A8C  D009               	goto	l4705
  4496                           	line	1145
  4497                           	
  4498  000A8E                     l4699:
  4499  000A8E  D008               	goto	l4705
  4500                           	
  4501  000A90                     l249:
  4502                           	line	1143
  4503                           	
  4504  000A90                     l4701:
  4505  000A90  2A6C               	incf	((c:sprintf@c)),c
  4506                           	
  4507  000A92                     l4703:
  4508  000A92  506C               	movf	((c:sprintf@c)),c,w
  4509  000A94  0A0A               	xorlw	10
  4510                           
  4511  000A96  A4D8               	btfss	status,2
  4512  000A98  D001               	goto	u3851
  4513  000A9A  D001               	goto	u3850
  4514  000A9C                     u3851:
  4515  000A9C  D7DB               	goto	l4697
  4516  000A9E                     u3850:
  4517  000A9E  D000               	goto	l4705
  4518                           	
  4519  000AA0                     l248:
  4520                           	line	1193
  4521                           	
  4522  000AA0                     l4705:
  4523  000AA0  0E03               	movlw	03h
  4524  000AA2  145B               	andwf	((c:sprintf@flag)),c,w
  4525  000AA4  6E4C               	movwf	(??_sprintf+0+0)&0ffh,c
  4526  000AA6  0E00               	movlw	0
  4527  000AA8  145C               	andwf	((c:sprintf@flag+1)),c,w
  4528  000AAA  6E4D               	movwf	(??_sprintf+0+0+1)&0ffh,c
  4529  000AAC  504D               	movf	(??_sprintf+0+1),c,w
  4530  000AAE  104C               	iorwf (??_sprintf+0+0),c,w
  4531                           
  4532  000AB0  B4D8               	btfsc	status,2
  4533  000AB2  D001               	goto	u3861
  4534  000AB4  D001               	goto	u3860
  4535  000AB6                     u3861:
  4536  000AB6  D048               	goto	l4715
  4537  000AB8                     u3860:
  4538                           	line	1195
  4539                           	
  4540  000AB8                     l4707:
  4541  000AB8  C045  FFD9         	movff	(c:sprintf@sp),fsr2l
  4542  000ABC  C046  FFDA         	movff	(c:sprintf@sp+1),fsr2h
  4543  000AC0  0E2D               	movlw	low(02Dh)
  4544  000AC2  6EDF               	movwf	indf2
  4545                           	
  4546  000AC4                     l4709:
  4547  000AC4  4A45               	infsnz	((c:sprintf@sp)),c
  4548  000AC6  2A46               	incf	((c:sprintf@sp+1)),c
  4549  000AC8  D03F               	goto	l4715
  4550                           	
  4551  000ACA                     l250:
  4552                           	line	1201
  4553  000ACA  D03E               	goto	l4715
  4554                           	
  4555  000ACC                     l252:
  4556                           	line	1205
  4557                           	
  4558  000ACC                     l4711:
  4559  000ACC  506C               	movf	((c:sprintf@c)),c,w
  4560  000ACE  0D04               	mullw	04h
  4561  000AD0  0E00               	movlw	low((_dpowers))
  4562  000AD2  24F3               	addwf	(prodl),c,w
  4563  000AD4  6EF6               	movwf	tblptrl
  4564  000AD6  6AF7               	clrf	tblptrh
  4565  000AD8  0E06               	movlw	high((_dpowers))
  4566  000ADA  22F7               	addwfc	tblptrh
  4567  000ADC  0009               	tblrd*+
  4568  000ADE  FFFF               		dw	0FFFFh; errata NOP
  4569                           
  4570  000AE0  CFF5 F005          	movff	tablat,0+((c:?___lldiv)+04h)
  4571  000AE4  0009               	tblrd*+
  4572  000AE6  FFFF               		dw	0FFFFh; errata NOP
  4573                           
  4574  000AE8  CFF5 F006          	movff	tablat,1+((c:?___lldiv)+04h)
  4575  000AEC  0009               	tblrd*+
  4576  000AEE  FFFF               		dw	0FFFFh; errata NOP
  4577                           
  4578  000AF0  CFF5 F007          	movff	tablat,2+((c:?___lldiv)+04h)
  4579  000AF4  000A               	tblrd*-
  4580  000AF6  FFFF               		dw	0FFFFh; errata NOP
  4581                           
  4582  000AF8  CFF5 F008          	movff	tablat,3+((c:?___lldiv)+04h)
  4583  000AFC  C062  F001         	movff	(c:sprintf@_val),(c:?___lldiv)
  4584  000B00  C063  F002         	movff	(c:sprintf@_val+1),(c:?___lldiv+1)
  4585  000B04  C064  F003         	movff	(c:sprintf@_val+2),(c:?___lldiv+2)
  4586  000B08  C065  F004         	movff	(c:sprintf@_val+3),(c:?___lldiv+3)
  4587  000B0C  ECA0  F011         	call	___lldiv	;wreg free
  4588  000B10  C001  F00F         	movff	0+?___lldiv,(c:?___llmod)
  4589  000B14  C002  F010         	movff	1+?___lldiv,(c:?___llmod+1)
  4590  000B18  C003  F011         	movff	2+?___lldiv,(c:?___llmod+2)
  4591  000B1C  C004  F012         	movff	3+?___lldiv,(c:?___llmod+3)
  4592  000B20  0E0A               	movlw	low(0Ah)
  4593  000B22  6E13               	movwf	(0+((c:?___llmod)+04h)),c
  4594  000B24  0E00               	movlw	high(0Ah)
  4595  000B26  6E14               	movwf	(1+((c:?___llmod)+04h)),c
  4596  000B28  0E00               	movlw	low highword(0Ah)
  4597  000B2A  6E15               	movwf	(2+((c:?___llmod)+04h)),c
  4598  000B2C  0E00               	movlw	high highword(0Ah)
  4599  000B2E  6E16               	movwf	(3+((c:?___llmod)+04h)),c
  4600  000B30  ECF0  F011         	call	___llmod	;wreg free
  4601  000B34  500F               	movf	(0+?___llmod),c,w
  4602  000B36  0F30               	addlw	low(030h)
  4603  000B38  C045  FFD9         	movff	(c:sprintf@sp),fsr2l
  4604  000B3C  C046  FFDA         	movff	(c:sprintf@sp+1),fsr2h
  4605  000B40  6EDF               	movwf	indf2
  4606                           
  4607                           	
  4608  000B42                     l4713:
  4609  000B42  4A45               	infsnz	((c:sprintf@sp)),c
  4610  000B44  2A46               	incf	((c:sprintf@sp+1)),c
  4611  000B46  D000               	goto	l4715
  4612                           	line	1207
  4613                           	
  4614  000B48                     l251:
  4615                           	line	1201
  4616                           	
  4617  000B48                     l4715:
  4618  000B48  066C               	decf	((c:sprintf@c)),c
  4619  000B4A  286C               	incf	((c:sprintf@c))&0ffh,w
  4620                           
  4621  000B4C  A4D8               	btfss	status,2
  4622  000B4E  D001               	goto	u3871
  4623  000B50  D001               	goto	u3870
  4624  000B52                     u3871:
  4625  000B52  D7BC               	goto	l4711
  4626  000B54                     u3870:
  4627  000B54  D00D               	goto	l4723
  4628                           	
  4629  000B56                     l253:
  4630                           	line	1208
  4631  000B56  D00C               	goto	l4723
  4632                           	
  4633  000B58                     l255:
  4634                           	line	1209
  4635                           	
  4636  000B58                     l4717:
  4637  000B58  C045  FFD9         	movff	(c:sprintf@sp),fsr2l
  4638  000B5C  C046  FFDA         	movff	(c:sprintf@sp+1),fsr2h
  4639  000B60  0E30               	movlw	low(030h)
  4640  000B62  6EDF               	movwf	indf2
  4641                           	
  4642  000B64                     l4719:
  4643  000B64  4A45               	infsnz	((c:sprintf@sp)),c
  4644  000B66  2A46               	incf	((c:sprintf@sp+1)),c
  4645                           	line	1210
  4646                           	
  4647  000B68                     l4721:
  4648  000B68  0667               	decf	((c:sprintf@exp)),c
  4649  000B6A  A0D8               	btfss	status,0
  4650  000B6C  0668               	decf	((c:sprintf@exp+1)),c
  4651  000B6E  D000               	goto	l4723
  4652                           	line	1211
  4653                           	
  4654  000B70                     l254:
  4655                           	line	1208
  4656                           	
  4657  000B70                     l4723:
  4658  000B70  5068               	movf	((c:sprintf@exp+1)),c,w
  4659  000B72  0A80               	xorlw	80h
  4660  000B74  0F80               	addlw	-((0)^80h)
  4661  000B76  0E01               	movlw	01h
  4662  000B78  B4D8               	btfsc	status,2
  4663  000B7A  5C67               	subwf	((c:sprintf@exp)),c,w
  4664  000B7C  B0D8               	btfsc	status,0
  4665  000B7E  D001               	goto	u3881
  4666  000B80  D001               	goto	u3880
  4667  000B82                     u3881:
  4668  000B82  D7EA               	goto	l4717
  4669  000B84                     u3880:
  4670  000B84  D000               	goto	l4725
  4671                           	
  4672  000B86                     l256:
  4673                           	line	1212
  4674                           	
  4675  000B86                     l4725:
  4676  000B86  5061               	movf	((c:sprintf@prec+1)),c,w
  4677  000B88  0A80               	xorlw	80h
  4678  000B8A  0F80               	addlw	-((0)^80h)
  4679  000B8C  0E09               	movlw	09h
  4680  000B8E  B4D8               	btfsc	status,2
  4681  000B90  5C60               	subwf	((c:sprintf@prec)),c,w
  4682  000B92  A0D8               	btfss	status,0
  4683  000B94  D001               	goto	u3891
  4684  000B96  D001               	goto	u3890
  4685  000B98                     u3891:
  4686  000B98  D005               	goto	l257
  4687  000B9A                     u3890:
  4688                           	line	1213
  4689                           	
  4690  000B9A                     l4727:
  4691  000B9A  6E4C               	movwf	(??_sprintf+0+0)&0ffh,c
  4692  000B9C  0E08               	movlw	low(08h)
  4693  000B9E  6E6C               	movwf	((c:sprintf@c)),c
  4694  000BA0  504C               	movf	(??_sprintf+0+0)&0ffh,c,w
  4695  000BA2  D003               	goto	l4729
  4696                           	line	1214
  4697                           	
  4698  000BA4                     l257:
  4699                           	line	1215
  4700  000BA4  C060  F06C         	movff	(c:sprintf@prec),(c:sprintf@c)
  4701  000BA8  D000               	goto	l4729
  4702                           	
  4703  000BAA                     l258:
  4704                           	line	1216
  4705                           	
  4706  000BAA                     l4729:
  4707  000BAA  506C               	movf	((c:sprintf@c)),c,w
  4708  000BAC  5E60               	subwf	((c:sprintf@prec)),c
  4709  000BAE  0E00               	movlw	0
  4710  000BB0  BE6C               	btfsc	((c:sprintf@c)),c,7
  4711  000BB2  0EFF               	movlw	0ffh
  4712  000BB4  5A61               	subwfb	((c:sprintf@prec+1)),c
  4713                           
  4714                           	line	1220
  4715                           	
  4716  000BB6                     l4731:
  4717  000BB6  506C               	movf	((c:sprintf@c)),c,w
  4718  000BB8  B4D8               	btfsc	status,2
  4719  000BBA  D001               	goto	u3901
  4720  000BBC  D001               	goto	u3900
  4721  000BBE                     u3901:
  4722  000BBE  D009               	goto	l4737
  4723  000BC0                     u3900:
  4724                           	line	1222
  4725                           	
  4726  000BC0                     l4733:
  4727  000BC0  C045  FFD9         	movff	(c:sprintf@sp),fsr2l
  4728  000BC4  C046  FFDA         	movff	(c:sprintf@sp+1),fsr2h
  4729  000BC8  0E2E               	movlw	low(02Eh)
  4730  000BCA  6EDF               	movwf	indf2
  4731                           	
  4732  000BCC                     l4735:
  4733  000BCC  4A45               	infsnz	((c:sprintf@sp)),c
  4734  000BCE  2A46               	incf	((c:sprintf@sp+1)),c
  4735  000BD0  D000               	goto	l4737
  4736                           	
  4737  000BD2                     l259:
  4738                           	line	1228
  4739                           	
  4740  000BD2                     l4737:
  4741  000BD2  C06C  F031         	movff	(c:sprintf@c),(c:?_scale)
  4742  000BD6  EC6D  F007         	call	_scale	;wreg free
  4743  000BDA  C031  F052         	movff	0+?_scale,(c:_sprintf$935)
  4744  000BDE  C032  F053         	movff	1+?_scale,(c:_sprintf$935+1)
  4745  000BE2  C033  F054         	movff	2+?_scale,(c:_sprintf$935+2)
  4746                           	
  4747  000BE6                     l4739:
  4748  000BE6  C069  F023         	movff	(c:sprintf@fval),0+((c:?___ftmul)+03h)
  4749  000BEA  C06A  F024         	movff	(c:sprintf@fval+1),1+((c:?___ftmul)+03h)
  4750  000BEE  C06B  F025         	movff	(c:sprintf@fval+2),2+((c:?___ftmul)+03h)
  4751  000BF2  C052  F020         	movff	(c:_sprintf$935),(c:?___ftmul)
  4752  000BF6  C053  F021         	movff	(c:_sprintf$935+1),(c:?___ftmul+1)
  4753  000BFA  C054  F022         	movff	(c:_sprintf$935+2),(c:?___ftmul+2)
  4754  000BFE  EC6A  F00D         	call	___ftmul	;wreg free
  4755  000C02  C020  F011         	movff	0+?___ftmul,(c:?___fttol)
  4756  000C06  C021  F012         	movff	1+?___ftmul,(c:?___fttol+1)
  4757  000C0A  C022  F013         	movff	2+?___ftmul,(c:?___fttol+2)
  4758  000C0E  EC0B  F00E         	call	___fttol	;wreg free
  4759  000C12  C011  F062         	movff	0+?___fttol,(c:sprintf@_val)
  4760  000C16  C012  F063         	movff	1+?___fttol,(c:sprintf@_val+1)
  4761  000C1A  C013  F064         	movff	2+?___fttol,(c:sprintf@_val+2)
  4762  000C1E  C014  F065         	movff	3+?___fttol,(c:sprintf@_val+3)
  4763                           	line	1229
  4764  000C22  D068               	goto	l4747
  4765                           	
  4766  000C24                     l261:
  4767                           	line	1230
  4768                           	
  4769  000C24                     l4741:
  4770  000C24  506C               	movf	((c:sprintf@c)),c,w
  4771  000C26  0D04               	mullw	04h
  4772  000C28  0E00               	movlw	low((_dpowers))
  4773  000C2A  24F3               	addwf	(prodl),c,w
  4774  000C2C  6EF6               	movwf	tblptrl
  4775  000C2E  6AF7               	clrf	tblptrh
  4776  000C30  0E06               	movlw	high((_dpowers))
  4777  000C32  22F7               	addwfc	tblptrh
  4778  000C34  0009               	tblrd*+
  4779  000C36  FFFF               		dw	0FFFFh; errata NOP
  4780                           
  4781  000C38  CFF5 F005          	movff	tablat,0+((c:?___lldiv)+04h)
  4782  000C3C  0009               	tblrd*+
  4783  000C3E  FFFF               		dw	0FFFFh; errata NOP
  4784                           
  4785  000C40  CFF5 F006          	movff	tablat,1+((c:?___lldiv)+04h)
  4786  000C44  0009               	tblrd*+
  4787  000C46  FFFF               		dw	0FFFFh; errata NOP
  4788                           
  4789  000C48  CFF5 F007          	movff	tablat,2+((c:?___lldiv)+04h)
  4790  000C4C  000A               	tblrd*-
  4791  000C4E  FFFF               		dw	0FFFFh; errata NOP
  4792                           
  4793  000C50  CFF5 F008          	movff	tablat,3+((c:?___lldiv)+04h)
  4794  000C54  C062  F001         	movff	(c:sprintf@_val),(c:?___lldiv)
  4795  000C58  C063  F002         	movff	(c:sprintf@_val+1),(c:?___lldiv+1)
  4796  000C5C  C064  F003         	movff	(c:sprintf@_val+2),(c:?___lldiv+2)
  4797  000C60  C065  F004         	movff	(c:sprintf@_val+3),(c:?___lldiv+3)
  4798  000C64  ECA0  F011         	call	___lldiv	;wreg free
  4799  000C68  C001  F00F         	movff	0+?___lldiv,(c:?___llmod)
  4800  000C6C  C002  F010         	movff	1+?___lldiv,(c:?___llmod+1)
  4801  000C70  C003  F011         	movff	2+?___lldiv,(c:?___llmod+2)
  4802  000C74  C004  F012         	movff	3+?___lldiv,(c:?___llmod+3)
  4803  000C78  0E0A               	movlw	low(0Ah)
  4804  000C7A  6E13               	movwf	(0+((c:?___llmod)+04h)),c
  4805  000C7C  0E00               	movlw	high(0Ah)
  4806  000C7E  6E14               	movwf	(1+((c:?___llmod)+04h)),c
  4807  000C80  0E00               	movlw	low highword(0Ah)
  4808  000C82  6E15               	movwf	(2+((c:?___llmod)+04h)),c
  4809  000C84  0E00               	movlw	high highword(0Ah)
  4810  000C86  6E16               	movwf	(3+((c:?___llmod)+04h)),c
  4811  000C88  ECF0  F011         	call	___llmod	;wreg free
  4812  000C8C  500F               	movf	(0+?___llmod),c,w
  4813  000C8E  0F30               	addlw	low(030h)
  4814  000C90  C045  FFD9         	movff	(c:sprintf@sp),fsr2l
  4815  000C94  C046  FFDA         	movff	(c:sprintf@sp+1),fsr2h
  4816  000C98  6EDF               	movwf	indf2
  4817                           
  4818                           	
  4819  000C9A                     l4743:
  4820  000C9A  4A45               	infsnz	((c:sprintf@sp)),c
  4821  000C9C  2A46               	incf	((c:sprintf@sp+1)),c
  4822                           	line	1231
  4823                           	
  4824  000C9E                     l4745:
  4825  000C9E  C062  F00F         	movff	(c:sprintf@_val),(c:?___llmod)
  4826  000CA2  C063  F010         	movff	(c:sprintf@_val+1),(c:?___llmod+1)
  4827  000CA6  C064  F011         	movff	(c:sprintf@_val+2),(c:?___llmod+2)
  4828  000CAA  C065  F012         	movff	(c:sprintf@_val+3),(c:?___llmod+3)
  4829  000CAE  506C               	movf	((c:sprintf@c)),c,w
  4830  000CB0  0D04               	mullw	04h
  4831  000CB2  0E00               	movlw	low((_dpowers))
  4832  000CB4  24F3               	addwf	(prodl),c,w
  4833  000CB6  6EF6               	movwf	tblptrl
  4834  000CB8  6AF7               	clrf	tblptrh
  4835  000CBA  0E06               	movlw	high((_dpowers))
  4836  000CBC  22F7               	addwfc	tblptrh
  4837  000CBE  0009               	tblrd*+
  4838  000CC0  FFFF               		dw	0FFFFh; errata NOP
  4839                           
  4840  000CC2  CFF5 F013          	movff	tablat,0+((c:?___llmod)+04h)
  4841  000CC6  0009               	tblrd*+
  4842  000CC8  FFFF               		dw	0FFFFh; errata NOP
  4843                           
  4844  000CCA  CFF5 F014          	movff	tablat,1+((c:?___llmod)+04h)
  4845  000CCE  0009               	tblrd*+
  4846  000CD0  FFFF               		dw	0FFFFh; errata NOP
  4847                           
  4848  000CD2  CFF5 F015          	movff	tablat,2+((c:?___llmod)+04h)
  4849  000CD6  000A               	tblrd*-
  4850  000CD8  FFFF               		dw	0FFFFh; errata NOP
  4851                           
  4852  000CDA  CFF5 F016          	movff	tablat,3+((c:?___llmod)+04h)
  4853  000CDE  ECF0  F011         	call	___llmod	;wreg free
  4854  000CE2  C00F  F062         	movff	0+?___llmod,(c:sprintf@_val)
  4855  000CE6  C010  F063         	movff	1+?___llmod,(c:sprintf@_val+1)
  4856  000CEA  C011  F064         	movff	2+?___llmod,(c:sprintf@_val+2)
  4857  000CEE  C012  F065         	movff	3+?___llmod,(c:sprintf@_val+3)
  4858  000CF2  D000               	goto	l4747
  4859                           	line	1232
  4860                           	
  4861  000CF4                     l260:
  4862                           	line	1229
  4863                           	
  4864  000CF4                     l4747:
  4865  000CF4  066C               	decf	((c:sprintf@c)),c
  4866  000CF6  286C               	incf	((c:sprintf@c))&0ffh,w
  4867                           
  4868  000CF8  A4D8               	btfss	status,2
  4869  000CFA  D001               	goto	u3911
  4870  000CFC  D001               	goto	u3910
  4871  000CFE                     u3911:
  4872  000CFE  D792               	goto	l4741
  4873  000D00                     u3910:
  4874  000D00  D00D               	goto	l4755
  4875                           	
  4876  000D02                     l262:
  4877                           	line	1234
  4878  000D02  D00C               	goto	l4755
  4879                           	
  4880  000D04                     l264:
  4881                           	line	1235
  4882                           	
  4883  000D04                     l4749:
  4884  000D04  C045  FFD9         	movff	(c:sprintf@sp),fsr2l
  4885  000D08  C046  FFDA         	movff	(c:sprintf@sp+1),fsr2h
  4886  000D0C  0E30               	movlw	low(030h)
  4887  000D0E  6EDF               	movwf	indf2
  4888                           	
  4889  000D10                     l4751:
  4890  000D10  4A45               	infsnz	((c:sprintf@sp)),c
  4891  000D12  2A46               	incf	((c:sprintf@sp+1)),c
  4892                           	line	1236
  4893                           	
  4894  000D14                     l4753:
  4895  000D14  0660               	decf	((c:sprintf@prec)),c
  4896  000D16  A0D8               	btfss	status,0
  4897  000D18  0661               	decf	((c:sprintf@prec+1)),c
  4898  000D1A  D000               	goto	l4755
  4899                           	line	1237
  4900                           	
  4901  000D1C                     l263:
  4902                           	line	1234
  4903                           	
  4904  000D1C                     l4755:
  4905  000D1C  5061               	movf	((c:sprintf@prec+1)),c,w
  4906  000D1E  1060               	iorwf ((c:sprintf@prec)),c,w
  4907                           
  4908  000D20  A4D8               	btfss	status,2
  4909  000D22  D001               	goto	u3921
  4910  000D24  D001               	goto	u3920
  4911  000D26                     u3921:
  4912  000D26  D7EE               	goto	l4749
  4913  000D28                     u3920:
  4914  000D28  D0BE               	goto	l4797
  4915                           	
  4916  000D2A                     l265:
  4917                           	line	1244
  4918  000D2A  D0BD               	goto	l4797
  4919                           	line	1245
  4920                           	
  4921  000D2C                     l229:
  4922                           	line	1258
  4923                           	
  4924  000D2C                     l4757:
  4925  000D2C  C059  FFD9         	movff	(c:sprintf@ap),fsr2l
  4926  000D30  C05A  FFDA         	movff	(c:sprintf@ap+1),fsr2h
  4927  000D34  CFDE F062          	movff	postinc2,(c:sprintf@_val)
  4928  000D38  CFDD F063          	movff	postdec2,(c:sprintf@_val+1)
  4929  000D3C  0E00               	movlw	0
  4930  000D3E  BE63               	btfsc	((c:sprintf@_val+1)),c,7
  4931  000D40  0EFF               	movlw	-1
  4932  000D42  6E64               	movwf	((c:sprintf@_val+2)),c
  4933  000D44  6E65               	movwf	((c:sprintf@_val+3)),c
  4934                           	
  4935  000D46                     l4759:
  4936  000D46  0E02               	movlw	02h
  4937  000D48  2659               	addwf	((c:sprintf@ap)),c
  4938  000D4A  0E00               	movlw	0
  4939  000D4C  225A               	addwfc	((c:sprintf@ap+1)),c
  4940                           	line	1260
  4941                           	
  4942  000D4E                     l4761:
  4943  000D4E  AE65               	btfss	((c:sprintf@_val+3)),c,7
  4944  000D50  D001               	goto	u3931
  4945  000D52  D001               	goto	u3930
  4946  000D54                     u3931:
  4947  000D54  D00B               	goto	l4767
  4948  000D56                     u3930:
  4949                           	line	1261
  4950                           	
  4951  000D56                     l4763:
  4952  000D56  0E03               	movlw	03h
  4953  000D58  125B               	iorwf	((c:sprintf@flag)),c
  4954                           	line	1262
  4955                           	
  4956  000D5A                     l4765:
  4957  000D5A  1E65               	comf	((c:sprintf@_val+3)),c
  4958  000D5C  1E64               	comf	((c:sprintf@_val+2)),c
  4959  000D5E  1E63               	comf	((c:sprintf@_val+1)),c
  4960  000D60  6C62               	negf	((c:sprintf@_val)),c
  4961  000D62  0E00               	movlw	0
  4962  000D64  2263               	addwfc	((c:sprintf@_val+1)),c
  4963  000D66  2264               	addwfc	((c:sprintf@_val+2)),c
  4964  000D68  2265               	addwfc	((c:sprintf@_val+3)),c
  4965  000D6A  D000               	goto	l4767
  4966                           	line	1263
  4967                           	
  4968  000D6C                     l266:
  4969                           	line	1304
  4970                           	
  4971  000D6C                     l4767:
  4972  000D6C  6E4C               	movwf	(??_sprintf+0+0)&0ffh,c
  4973  000D6E  0E01               	movlw	low(01h)
  4974  000D70  6E6C               	movwf	((c:sprintf@c)),c
  4975  000D72  504C               	movf	(??_sprintf+0+0)&0ffh,c,w
  4976                           	
  4977  000D74                     l4769:
  4978  000D74  506C               	movf	((c:sprintf@c)),c,w
  4979  000D76  0A0A               	xorlw	10
  4980                           
  4981  000D78  A4D8               	btfss	status,2
  4982  000D7A  D001               	goto	u3941
  4983  000D7C  D001               	goto	u3940
  4984  000D7E                     u3941:
  4985  000D7E  D002               	goto	l4773
  4986  000D80                     u3940:
  4987  000D80  D027               	goto	l4781
  4988                           	
  4989  000D82                     l4771:
  4990  000D82  D026               	goto	l4781
  4991                           	line	1305
  4992                           	
  4993  000D84                     l267:
  4994                           	
  4995  000D84                     l4773:
  4996  000D84  506C               	movf	((c:sprintf@c)),c,w
  4997  000D86  0D04               	mullw	04h
  4998  000D88  0E00               	movlw	low((_dpowers))
  4999  000D8A  24F3               	addwf	(prodl),c,w
  5000  000D8C  6EF6               	movwf	tblptrl
  5001  000D8E  6AF7               	clrf	tblptrh
  5002  000D90  0E06               	movlw	high((_dpowers))
  5003  000D92  22F7               	addwfc	tblptrh
  5004  000D94  0009               	tblrd	*+
  5005  000D96  FFFF               		dw	0FFFFh; errata NOP
  5006                           
  5007  000D98  50F5               	movf	tablat,w
  5008  000D9A  5C62               	subwf	((c:sprintf@_val)),c,w
  5009  000D9C  0009               	tblrd	*+
  5010  000D9E  FFFF               		dw	0FFFFh; errata NOP
  5011                           
  5012  000DA0  50F5               	movf	tablat,w
  5013  000DA2  5863               	subwfb	((c:sprintf@_val+1)),c,w
  5014  000DA4  0009               	tblrd	*+
  5015  000DA6  FFFF               		dw	0FFFFh; errata NOP
  5016                           
  5017  000DA8  50F5               	movf	tablat,w
  5018  000DAA  5864               	subwfb	((c:sprintf@_val+2)),c,w
  5019  000DAC  0009               	tblrd	*+
  5020  000DAE  FFFF               		dw	0FFFFh; errata NOP
  5021                           
  5022  000DB0  50F5               	movf	tablat,w
  5023  000DB2  5865               	subwfb	((c:sprintf@_val+3)),c,w
  5024  000DB4  B0D8               	btfsc	status,0
  5025  000DB6  D001               	goto	u3951
  5026  000DB8  D001               	goto	u3950
  5027  000DBA                     u3951:
  5028  000DBA  D002               	goto	l4777
  5029  000DBC                     u3950:
  5030  000DBC  D009               	goto	l4781
  5031                           	line	1306
  5032                           	
  5033  000DBE                     l4775:
  5034  000DBE  D008               	goto	l4781
  5035                           	
  5036  000DC0                     l269:
  5037                           	line	1304
  5038                           	
  5039  000DC0                     l4777:
  5040  000DC0  2A6C               	incf	((c:sprintf@c)),c
  5041                           	
  5042  000DC2                     l4779:
  5043  000DC2  506C               	movf	((c:sprintf@c)),c,w
  5044  000DC4  0A0A               	xorlw	10
  5045                           
  5046  000DC6  A4D8               	btfss	status,2
  5047  000DC8  D001               	goto	u3961
  5048  000DCA  D001               	goto	u3960
  5049  000DCC                     u3961:
  5050  000DCC  D7DB               	goto	l4773
  5051  000DCE                     u3960:
  5052  000DCE  D000               	goto	l4781
  5053                           	
  5054  000DD0                     l268:
  5055                           	line	1437
  5056                           	
  5057  000DD0                     l4781:
  5058  000DD0  0E03               	movlw	03h
  5059  000DD2  145B               	andwf	((c:sprintf@flag)),c,w
  5060  000DD4  6E4C               	movwf	(??_sprintf+0+0)&0ffh,c
  5061  000DD6  0E00               	movlw	0
  5062  000DD8  145C               	andwf	((c:sprintf@flag+1)),c,w
  5063  000DDA  6E4D               	movwf	(??_sprintf+0+0+1)&0ffh,c
  5064  000DDC  504D               	movf	(??_sprintf+0+1),c,w
  5065  000DDE  104C               	iorwf (??_sprintf+0+0),c,w
  5066                           
  5067  000DE0  B4D8               	btfsc	status,2
  5068  000DE2  D001               	goto	u3971
  5069  000DE4  D001               	goto	u3970
  5070  000DE6                     u3971:
  5071  000DE6  D009               	goto	l4787
  5072  000DE8                     u3970:
  5073                           	line	1438
  5074                           	
  5075  000DE8                     l4783:
  5076  000DE8  C045  FFD9         	movff	(c:sprintf@sp),fsr2l
  5077  000DEC  C046  FFDA         	movff	(c:sprintf@sp+1),fsr2h
  5078  000DF0  0E2D               	movlw	low(02Dh)
  5079  000DF2  6EDF               	movwf	indf2
  5080                           	
  5081  000DF4                     l4785:
  5082  000DF4  4A45               	infsnz	((c:sprintf@sp)),c
  5083  000DF6  2A46               	incf	((c:sprintf@sp+1)),c
  5084  000DF8  D000               	goto	l4787
  5085                           	
  5086  000DFA                     l270:
  5087                           	line	1471
  5088                           	
  5089  000DFA                     l4787:
  5090  000DFA  506C               	movf	((c:sprintf@c)),c,w
  5091  000DFC  6E60               	movwf	((c:sprintf@prec)),c
  5092  000DFE  6A61               	clrf	((c:sprintf@prec+1)),c
  5093  000E00  BE60               	btfsc	((c:sprintf@prec)),c,7
  5094  000E02  0661               	decf	((c:sprintf@prec+1)),c
  5095                           	line	1473
  5096  000E04  D044               	goto	l4795
  5097                           	
  5098  000E06                     l272:
  5099                           	line	1488
  5100                           	
  5101  000E06                     l4789:
  5102  000E06  C060  F04C         	movff	(c:sprintf@prec),??_sprintf+0+0
  5103  000E0A  90D8               	bcf	status,0
  5104  000E0C  364C               	rlcf	(??_sprintf+0+0),c
  5105  000E0E  90D8               	bcf	status,0
  5106  000E10  364C               	rlcf	(??_sprintf+0+0),c
  5107                           
  5108  000E12  0E00               	movlw	low((_dpowers))
  5109  000E14  244C               	addwf	(??_sprintf+0+0),c,w
  5110  000E16  6EF6               	movwf	tblptrl
  5111  000E18  6AF7               	clrf	tblptrh
  5112  000E1A  0E06               	movlw	high((_dpowers))
  5113  000E1C  22F7               	addwfc	tblptrh
  5114  000E1E  0009               	tblrd*+
  5115  000E20  FFFF               		dw	0FFFFh; errata NOP
  5116                           
  5117  000E22  CFF5 F005          	movff	tablat,0+((c:?___lldiv)+04h)
  5118  000E26  0009               	tblrd*+
  5119  000E28  FFFF               		dw	0FFFFh; errata NOP
  5120                           
  5121  000E2A  CFF5 F006          	movff	tablat,1+((c:?___lldiv)+04h)
  5122  000E2E  0009               	tblrd*+
  5123  000E30  FFFF               		dw	0FFFFh; errata NOP
  5124                           
  5125  000E32  CFF5 F007          	movff	tablat,2+((c:?___lldiv)+04h)
  5126  000E36  000A               	tblrd*-
  5127  000E38  FFFF               		dw	0FFFFh; errata NOP
  5128                           
  5129  000E3A  CFF5 F008          	movff	tablat,3+((c:?___lldiv)+04h)
  5130  000E3E  C062  F001         	movff	(c:sprintf@_val),(c:?___lldiv)
  5131  000E42  C063  F002         	movff	(c:sprintf@_val+1),(c:?___lldiv+1)
  5132  000E46  C064  F003         	movff	(c:sprintf@_val+2),(c:?___lldiv+2)
  5133  000E4A  C065  F004         	movff	(c:sprintf@_val+3),(c:?___lldiv+3)
  5134  000E4E  ECA0  F011         	call	___lldiv	;wreg free
  5135  000E52  C001  F00F         	movff	0+?___lldiv,(c:?___llmod)
  5136  000E56  C002  F010         	movff	1+?___lldiv,(c:?___llmod+1)
  5137  000E5A  C003  F011         	movff	2+?___lldiv,(c:?___llmod+2)
  5138  000E5E  C004  F012         	movff	3+?___lldiv,(c:?___llmod+3)
  5139  000E62  0E0A               	movlw	low(0Ah)
  5140  000E64  6E13               	movwf	(0+((c:?___llmod)+04h)),c
  5141  000E66  0E00               	movlw	high(0Ah)
  5142  000E68  6E14               	movwf	(1+((c:?___llmod)+04h)),c
  5143  000E6A  0E00               	movlw	low highword(0Ah)
  5144  000E6C  6E15               	movwf	(2+((c:?___llmod)+04h)),c
  5145  000E6E  0E00               	movlw	high highword(0Ah)
  5146  000E70  6E16               	movwf	(3+((c:?___llmod)+04h)),c
  5147  000E72  ECF0  F011         	call	___llmod	;wreg free
  5148  000E76  500F               	movf	(0+?___llmod),c,w
  5149  000E78  0F30               	addlw	low(030h)
  5150  000E7A  6E6C               	movwf	((c:sprintf@c)),c
  5151                           	line	1520
  5152                           	
  5153  000E7C                     l4791:
  5154  000E7C  C045  FFD9         	movff	(c:sprintf@sp),fsr2l
  5155  000E80  C046  FFDA         	movff	(c:sprintf@sp+1),fsr2h
  5156  000E84  C06C  FFDF         	movff	(c:sprintf@c),indf2
  5157                           
  5158                           	
  5159  000E88                     l4793:
  5160  000E88  4A45               	infsnz	((c:sprintf@sp)),c
  5161  000E8A  2A46               	incf	((c:sprintf@sp+1)),c
  5162  000E8C  D000               	goto	l4795
  5163                           	line	1521
  5164                           	
  5165  000E8E                     l271:
  5166                           	line	1473
  5167                           	
  5168  000E8E                     l4795:
  5169  000E8E  0660               	decf	((c:sprintf@prec)),c
  5170  000E90  A0D8               	btfss	status,0
  5171  000E92  0661               	decf	((c:sprintf@prec+1)),c
  5172  000E94  2860               	incf	((c:sprintf@prec))&0ffh,w
  5173  000E96  B4D8               	btfsc	status,2
  5174  000E98  2861               	incf ((c:sprintf@prec+1))&0ffh,w
  5175                           
  5176  000E9A  A4D8               	btfss	status,2
  5177  000E9C  D001               	goto	u3981
  5178  000E9E  D001               	goto	u3980
  5179  000EA0                     u3981:
  5180  000EA0  D7B2               	goto	l4789
  5181  000EA2                     u3980:
  5182  000EA2  D001               	goto	l4797
  5183                           	
  5184  000EA4                     l273:
  5185  000EA4  D000               	goto	l4797
  5186                           	line	1529
  5187                           	
  5188  000EA6                     l218:
  5189                           	line	544
  5190                           	
  5191  000EA6                     l4797:
  5192  000EA6  C047  FFF6         	movff	(c:sprintf@f),tblptrl
  5193  000EAA  C048  FFF7         	movff	(c:sprintf@f+1),tblptrh
  5194  000EAE  4A47               	infsnz	((c:sprintf@f)),c
  5195  000EB0  2A48               	incf	((c:sprintf@f+1)),c
  5196  000EB2  0008               	tblrd	*
  5197  000EB4  FFFF               		dw	0FFFFh; errata NOP
  5198                           
  5199  000EB6  CFF5 F06C          	movff	tablat,(c:sprintf@c)
  5200  000EBA  666C               	tstfsz	((c:sprintf@c))&0ffh
  5201  000EBC  D001               	goto	u3991
  5202  000EBE  D002               	goto	u3990
  5203  000EC0                     u3991:
  5204  000EC0  EF4B  F003         	goto	l4601
  5205  000EC4                     u3990:
  5206  000EC4  D001               	goto	l4799
  5207                           	
  5208  000EC6                     l274:
  5209  000EC6  D000               	goto	l4799
  5210                           	line	1531
  5211                           	
  5212  000EC8                     l223:
  5213                           	line	1534
  5214                           	
  5215  000EC8                     l4799:
  5216  000EC8  C045  FFD9         	movff	(c:sprintf@sp),fsr2l
  5217  000ECC  C046  FFDA         	movff	(c:sprintf@sp+1),fsr2h
  5218  000ED0  0E00               	movlw	low(0)
  5219  000ED2  6EDF               	movwf	indf2
  5220  000ED4  D000               	goto	l275
  5221                           	line	1536
  5222                           	
  5223  000ED6                     l4801:
  5224                           	line	1537
  5225                           ;	Return value of _sprintf is never used
  5226                           	
  5227  000ED6                     l275:
  5228  000ED6  0012               	return
  5229  000ED8  FFFF               	dw	0FFFFh; errata NOP
  5230                           	opt stack 0
  5231                           GLOBAL	__end_of_sprintf
  5232  000EDA                     	__end_of_sprintf:
  5233                           	signat	_sprintf,4698
  5234                           	global	_strcat
  5235                           
  5236 ;; *************** function _strcat *****************
  5237 ;; Defined at:
  5238 ;;		line 10 in file "C:\Program Files\HI-TECH Software\PICC-18\9.80\sources\strcat.c"
  5239 ;; Parameters:    Size  Location     Type
  5240 ;;  to              2    0[COMRAM] PTR unsigned char 
  5241 ;;		 -> lcd_putsTwoint@crgValue(15), 
  5242 ;;  from            2    2[COMRAM] PTR const unsigned char 
  5243 ;;		 -> STR_6(4), STR_5(2), STR_4(4), lcd_putsTwoint@crgSecondValue(5), 
  5244 ;;		 -> lcd_putsTwoint@crgFirstValue(5), 
  5245 ;; Auto vars:     Size  Location     Type
  5246 ;;  cp              2    6[COMRAM] PTR unsigned char 
  5247 ;;		 -> lcd_putsTwoint@crgValue(15), 
  5248 ;; Return value:  Size  Location     Type
  5249 ;;                  2    0[COMRAM] PTR unsigned char 
  5250 ;; Registers used:
  5251 ;;		wreg, fsr0l, fsr0h, fsr2l, fsr2h, status,2, status,0, tblptrl, tblptrh, tblptru
  5252 ;; Tracked objects:
  5253 ;;		On entry : F/0
  5254 ;;		On exit  : 0/0
  5255 ;;		Unchanged: 0/0
  5256 ;; Data sizes:     COMRAM   BANK0   BANK1   BANK2   BANK3   BANK4   BANK5
  5257 ;;      Params:         4       0       0       0       0       0       0
  5258 ;;      Locals:         2       0       0       0       0       0       0
  5259 ;;      Temps:          2       0       0       0       0       0       0
  5260 ;;      Totals:         8       0       0       0       0       0       0
  5261 ;;Total ram usage:        8 bytes
  5262 ;; Hardware stack levels used:    1
  5263 ;; This function calls:
  5264 ;;		Nothing
  5265 ;; This function is called by:
  5266 ;;		_lcd_putsTwoint
  5267 ;; This function uses a non-reentrant model
  5268 ;;
  5269                           psect	text13,class=CODE,space=0,reloc=2
  5270                           global __ptext13
  5271  002464                     __ptext13:
  5272                           psect	text13
  5273                           	file	"C:\Program Files\HI-TECH Software\PICC-18\9.80\sources\strcat.c"
  5274                           	line	10
  5275                           	global	__size_of_strcat
  5276  0000                     	__size_of_strcat	equ	__end_of_strcat-_strcat
  5277                           	
  5278  002464                     _strcat:
  5279                           	opt	stack 29
  5280  002464  FFFF               	dw	0FFFFh
  5281                           	line	18
  5282                           	
  5283  002466                     l3789:; BSR set to: 0
  5284                           
  5285  002466  C001  F007         	movff	(c:strcat@to),(c:strcat@cp)
  5286  00246A  C002  F008         	movff	(c:strcat@to+1),(c:strcat@cp+1)
  5287                           	line	19
  5288  00246E  D003               	goto	l3793
  5289                           	
  5290  002470                     l805:
  5291                           	line	20
  5292                           	
  5293  002470                     l3791:
  5294  002470  4A07               	infsnz	((c:strcat@cp)),c
  5295  002472  2A08               	incf	((c:strcat@cp+1)),c
  5296  002474  D000               	goto	l3793
  5297                           	
  5298  002476                     l804:
  5299                           	line	19
  5300                           	
  5301  002476                     l3793:
  5302  002476  C007  FFD9         	movff	(c:strcat@cp),fsr2l
  5303  00247A  C008  FFDA         	movff	(c:strcat@cp+1),fsr2h
  5304  00247E  50DF               	movf	indf2,w
  5305  002480  A4D8               	btfss	status,2
  5306  002482  D001               	goto	u2601
  5307  002484  D001               	goto	u2600
  5308  002486                     u2601:
  5309  002486  D7F4               	goto	l3791
  5310  002488                     u2600:
  5311  002488  D002               	goto	l3795
  5312                           	
  5313  00248A                     l806:
  5314                           	line	21
  5315  00248A  D001               	goto	l3795
  5316                           	
  5317  00248C                     l808:
  5318                           	line	22
  5319  00248C  D000               	goto	l3795
  5320                           	
  5321  00248E                     l807:
  5322                           	line	21
  5323                           	
  5324  00248E                     l3795:
  5325  00248E  5003               	movf	((c:strcat@from)),c,w
  5326  002490  6E05               	movwf	(??_strcat+0+0)&0ffh,c
  5327  002492  5004               	movf	((c:strcat@from+1)),c,w
  5328  002494  6E06               	movwf	1+(??_strcat+0+0)&0ffh,c
  5329  002496  4A03               	infsnz	((c:strcat@from)),c
  5330  002498  2A04               	incf	((c:strcat@from+1)),c
  5331  00249A  C005  FFF6         	movff	??_strcat+0+0,tblptrl
  5332  00249E  C006  FFF7         	movff	??_strcat+0+1,tblptrh
  5333  0024A2  6AF8               	clrf	tblptru
  5334  0024A4  C007  FFD9         	movff	(c:strcat@cp),fsr2l
  5335  0024A8  C008  FFDA         	movff	(c:strcat@cp+1),fsr2h
  5336  0024AC  4A07               	infsnz	((c:strcat@cp)),c
  5337  0024AE  2A08               	incf	((c:strcat@cp+1)),c
  5338  0024B0  0E05               	movlw	high __ramtop-1
  5339  0024B2  64F7               	cpfsgt	tblptrh
  5340  0024B4  D004               	bra	u2617
  5341  0024B6  0008               	tblrd	*
  5342  0024B8  FFFF               		dw	0FFFFh; errata NOP
  5343                           
  5344  0024BA  50F5               	movf	tablat,w
  5345  0024BC  D005               	bra	u2610
  5346  0024BE                     u2617:
  5347  0024BE  CFF6 FFE9          	movff	tblptrl,fsr0l
  5348  0024C2  CFF7 FFEA          	movff	tblptrh,fsr0h
  5349  0024C6  50EF               	movf	indf0,w
  5350  0024C8                     u2610:
  5351  0024C8  6EDF               	movwf	indf2
  5352  0024CA  50DF               	movf	indf2,w
  5353  0024CC  A4D8               	btfss	status,2
  5354  0024CE  D001               	goto	u2621
  5355  0024D0  D001               	goto	u2620
  5356  0024D2                     u2621:
  5357  0024D2  D7DD               	goto	l3795
  5358  0024D4                     u2620:
  5359  0024D4  D000               	goto	l810
  5360                           	
  5361  0024D6                     l809:
  5362                           	line	24
  5363                           ;	Return value of _strcat is never used
  5364                           	
  5365  0024D6                     l810:
  5366  0024D6  0012               	return
  5367  0024D8  FFFF               	dw	0FFFFh; errata NOP
  5368                           	opt stack 0
  5369                           GLOBAL	__end_of_strcat
  5370  0024DA                     	__end_of_strcat:
  5371                           	signat	_strcat,8314
  5372                           	global	_fround
  5373                           
  5374 ;; *************** function _fround *****************
  5375 ;; Defined at:
  5376 ;;		line 410 in file "C:\Program Files\HI-TECH Software\PICC-18\9.80\lib\doprnt.c"
  5377 ;; Parameters:    Size  Location     Type
  5378 ;;  prec            1   48[COMRAM] unsigned char 
  5379 ;; Auto vars:     Size  Location     Type
  5380 ;;		None
  5381 ;; Return value:  Size  Location     Type
  5382 ;;                  3   48[COMRAM] unsigned char 
  5383 ;; Registers used:
  5384 ;;		wreg, status,2, status,0, tblptrl, tblptrh, tblptru, prodl, prodh, cstack
  5385 ;; Tracked objects:
  5386 ;;		On entry : 0/0
  5387 ;;		On exit  : 0/0
  5388 ;;		Unchanged: 0/0
  5389 ;; Data sizes:     COMRAM   BANK0   BANK1   BANK2   BANK3   BANK4   BANK5
  5390 ;;      Params:         3       0       0       0       0       0       0
  5391 ;;      Locals:         6       0       0       0       0       0       0
  5392 ;;      Temps:          6       0       0       0       0       0       0
  5393 ;;      Totals:        15       0       0       0       0       0       0
  5394 ;;Total ram usage:       15 bytes
  5395 ;; Hardware stack levels used:    1
  5396 ;; Hardware stack levels required when called:    2
  5397 ;; This function calls:
  5398 ;;		___awmod
  5399 ;;		___awdiv
  5400 ;;		___ftmul
  5401 ;; This function is called by:
  5402 ;;		_sprintf
  5403 ;; This function uses a non-reentrant model
  5404 ;;
  5405                           psect	text14,class=CODE,space=0,reloc=2
  5406                           global __ptext14
  5407  001338                     __ptext14:
  5408                           psect	text14
  5409                           	file	"C:\Program Files\HI-TECH Software\PICC-18\9.80\sources\doprnt.c"
  5410                           	line	410
  5411                           	global	__size_of_fround
  5412  0000                     	__size_of_fround	equ	__end_of_fround-_fround
  5413                           	
  5414  001338                     _fround:
  5415                           	opt	stack 26
  5416  001338  FFFF               	dw	0FFFFh
  5417                           	line	413
  5418                           	
  5419  00133A                     l4517:
  5420  00133A  0E6D               	movlw	(06Eh-1)
  5421  00133C  6431               	cpfsgt	((c:fround@prec)),c
  5422  00133E  D001               	goto	u3621
  5423  001340  D001               	goto	u3620
  5424  001342                     u3621:
  5425  001342  D0A2               	goto	l4527
  5426  001344                     u3620:
  5427                           	line	414
  5428                           	
  5429  001344                     l4519:
  5430  001344  0E00               	movlw	high(0Ah)
  5431  001346  6E0B               	movwf	(1+((c:?___awdiv)+02h)),c
  5432  001348  0E0A               	movlw	low(0Ah)
  5433  00134A  6E0A               	movwf	(0+((c:?___awdiv)+02h)),c
  5434  00134C  0E00               	movlw	high(064h)
  5435  00134E  6E04               	movwf	(1+((c:?___awmod)+02h)),c
  5436  001350  0E64               	movlw	low(064h)
  5437  001352  6E03               	movwf	(0+((c:?___awmod)+02h)),c
  5438  001354  C031  F001         	movff	(c:fround@prec),(c:?___awmod)
  5439  001358  6A02               	clrf	((c:?___awmod+1)),c
  5440  00135A  ECF6  F010         	call	___awmod	;wreg free
  5441  00135E  C001  F008         	movff	0+?___awmod,(c:?___awdiv)
  5442  001362  C002  F009         	movff	1+?___awmod,(c:?___awdiv+1)
  5443  001366  EC96  F010         	call	___awdiv	;wreg free
  5444  00136A  5008               	movf	(0+?___awdiv),c,w
  5445  00136C  0F09               	addlw	low(09h)
  5446  00136E  0D03               	mullw	03h
  5447  001370  0E28               	movlw	low((__npowers_))
  5448  001372  24F3               	addwf	(prodl),c,w
  5449  001374  6EF6               	movwf	tblptrl
  5450  001376  6AF7               	clrf	tblptrh
  5451  001378  0E06               	movlw	high((__npowers_))
  5452  00137A  22F7               	addwfc	tblptrh
  5453  00137C  0009               	tblrd	*+
  5454  00137E  FFFF               		dw	0FFFFh; errata NOP
  5455                           
  5456  001380  CFF5 F034          	movff	tablat,??_fround+0+0
  5457  001384  0009               	tblrd	*+
  5458  001386  FFFF               		dw	0FFFFh; errata NOP
  5459                           
  5460  001388  CFF5 F035          	movff	tablat,??_fround+0+0+1
  5461  00138C  0009               	tblrd	*+
  5462  00138E  FFFF               		dw	0FFFFh; errata NOP
  5463                           
  5464  001390  CFF5 F036          	movff	tablat,??_fround+0+0+2
  5465  001394  C034  F023         	movff	??_fround+0+0,0+((c:?___ftmul)+03h)
  5466  001398  C035  F024         	movff	??_fround+0+1,1+((c:?___ftmul)+03h)
  5467  00139C  C036  F025         	movff	??_fround+0+2,2+((c:?___ftmul)+03h)
  5468  0013A0  0E00               	movlw	high(064h)
  5469  0013A2  6E0B               	movwf	(1+((c:?___awdiv)+02h)),c
  5470  0013A4  0E64               	movlw	low(064h)
  5471  0013A6  6E0A               	movwf	(0+((c:?___awdiv)+02h)),c
  5472  0013A8  C031  F008         	movff	(c:fround@prec),(c:?___awdiv)
  5473  0013AC  6A09               	clrf	((c:?___awdiv+1)),c
  5474  0013AE  EC96  F010         	call	___awdiv	;wreg free
  5475  0013B2  5008               	movf	(0+?___awdiv),c,w
  5476  0013B4  0F12               	addlw	low(012h)
  5477  0013B6  0D03               	mullw	03h
  5478  0013B8  0E28               	movlw	low((__npowers_))
  5479  0013BA  24F3               	addwf	(prodl),c,w
  5480  0013BC  6EF6               	movwf	tblptrl
  5481  0013BE  6AF7               	clrf	tblptrh
  5482  0013C0  0E06               	movlw	high((__npowers_))
  5483  0013C2  22F7               	addwfc	tblptrh
  5484  0013C4  0009               	tblrd	*+
  5485  0013C6  FFFF               		dw	0FFFFh; errata NOP
  5486                           
  5487  0013C8  CFF5 F037          	movff	tablat,??_fround+3+0
  5488  0013CC  0009               	tblrd	*+
  5489  0013CE  FFFF               		dw	0FFFFh; errata NOP
  5490                           
  5491  0013D0  CFF5 F038          	movff	tablat,??_fround+3+0+1
  5492  0013D4  0009               	tblrd	*+
  5493  0013D6  FFFF               		dw	0FFFFh; errata NOP
  5494                           
  5495  0013D8  CFF5 F039          	movff	tablat,??_fround+3+0+2
  5496  0013DC  C037  F020         	movff	??_fround+3+0,(c:?___ftmul)
  5497  0013E0  C038  F021         	movff	??_fround+3+1,(c:?___ftmul+1)
  5498  0013E4  C039  F022         	movff	??_fround+3+2,(c:?___ftmul+2)
  5499  0013E8  EC6A  F00D         	call	___ftmul	;wreg free
  5500  0013EC  C020  F03D         	movff	0+?___ftmul,(c:_fround$932)
  5501  0013F0  C021  F03E         	movff	1+?___ftmul,(c:_fround$932+1)
  5502  0013F4  C022  F03F         	movff	2+?___ftmul,(c:_fround$932+2)
  5503  0013F8  0E00               	movlw	high(0Ah)
  5504  0013FA  6E04               	movwf	(1+((c:?___awmod)+02h)),c
  5505  0013FC  0E0A               	movlw	low(0Ah)
  5506  0013FE  6E03               	movwf	(0+((c:?___awmod)+02h)),c
  5507  001400  C031  F001         	movff	(c:fround@prec),(c:?___awmod)
  5508  001404  6A02               	clrf	((c:?___awmod+1)),c
  5509  001406  ECF6  F010         	call	___awmod	;wreg free
  5510  00140A  5001               	movf	(0+?___awmod),c,w
  5511  00140C  0D03               	mullw	03h
  5512  00140E  0E28               	movlw	low((__npowers_))
  5513  001410  24F3               	addwf	(prodl),c,w
  5514  001412  6EF6               	movwf	tblptrl
  5515  001414  6AF7               	clrf	tblptrh
  5516  001416  0E06               	movlw	high((__npowers_))
  5517  001418  22F7               	addwfc	tblptrh
  5518  00141A  0009               	tblrd	*+
  5519  00141C  FFFF               		dw	0FFFFh; errata NOP
  5520                           
  5521  00141E  CFF5 F034          	movff	tablat,??_fround+0+0
  5522  001422  0009               	tblrd	*+
  5523  001424  FFFF               		dw	0FFFFh; errata NOP
  5524                           
  5525  001426  CFF5 F035          	movff	tablat,??_fround+0+0+1
  5526  00142A  0009               	tblrd	*+
  5527  00142C  FFFF               		dw	0FFFFh; errata NOP
  5528                           
  5529  00142E  CFF5 F036          	movff	tablat,??_fround+0+0+2
  5530  001432  C034  F023         	movff	??_fround+0+0,0+((c:?___ftmul)+03h)
  5531  001436  C035  F024         	movff	??_fround+0+1,1+((c:?___ftmul)+03h)
  5532  00143A  C036  F025         	movff	??_fround+0+2,2+((c:?___ftmul)+03h)
  5533  00143E  C03D  F020         	movff	(c:_fround$932),(c:?___ftmul)
  5534  001442  C03E  F021         	movff	(c:_fround$932+1),(c:?___ftmul+1)
  5535  001446  C03F  F022         	movff	(c:_fround$932+2),(c:?___ftmul+2)
  5536  00144A  EC6A  F00D         	call	___ftmul	;wreg free
  5537  00144E  C020  F03A         	movff	0+?___ftmul,(c:_fround$933)
  5538  001452  C021  F03B         	movff	1+?___ftmul,(c:_fround$933+1)
  5539  001456  C022  F03C         	movff	2+?___ftmul,(c:_fround$933+2)
  5540                           	
  5541  00145A                     l4521:
  5542  00145A  C03A  F020         	movff	(c:_fround$933),(c:?___ftmul)
  5543  00145E  C03B  F021         	movff	(c:_fround$933+1),(c:?___ftmul+1)
  5544  001462  C03C  F022         	movff	(c:_fround$933+2),(c:?___ftmul+2)
  5545  001466  0E00               	movlw	low(float24(0.50000000000000000))
  5546  001468  6E23               	movwf	(0+((c:?___ftmul)+03h)),c
  5547  00146A  0E00               	movlw	high(float24(0.50000000000000000))
  5548  00146C  6E24               	movwf	(1+((c:?___ftmul)+03h)),c
  5549  00146E  0E3F               	movlw	low highword(float24(0.50000000000000000))
  5550  001470  6E25               	movwf	(2+((c:?___ftmul)+03h)),c
  5551                           
  5552  001472  EC6A  F00D         	call	___ftmul	;wreg free
  5553  001476  C020  F031         	movff	0+?___ftmul,(c:?_fround)
  5554  00147A  C021  F032         	movff	1+?___ftmul,(c:?_fround+1)
  5555  00147E  C022  F033         	movff	2+?___ftmul,(c:?_fround+2)
  5556  001482  D096               	goto	l203
  5557                           	
  5558  001484                     l4523:
  5559  001484  D095               	goto	l203
  5560                           	
  5561  001486                     l4525:
  5562  001486  D06B               	goto	l4535
  5563                           	line	415
  5564                           	
  5565  001488                     l202:
  5566                           	
  5567  001488                     l4527:
  5568  001488  0E0A               	movlw	(0Bh-1)
  5569  00148A  6431               	cpfsgt	((c:fround@prec)),c
  5570  00148C  D001               	goto	u3631
  5571  00148E  D001               	goto	u3630
  5572  001490                     u3631:
  5573  001490  D066               	goto	l4535
  5574  001492                     u3630:
  5575                           	line	416
  5576                           	
  5577  001492                     l4529:
  5578  001492  0E00               	movlw	high(0Ah)
  5579  001494  6E04               	movwf	(1+((c:?___awmod)+02h)),c
  5580  001496  0E0A               	movlw	low(0Ah)
  5581  001498  6E03               	movwf	(0+((c:?___awmod)+02h)),c
  5582  00149A  C031  F001         	movff	(c:fround@prec),(c:?___awmod)
  5583  00149E  6A02               	clrf	((c:?___awmod+1)),c
  5584  0014A0  ECF6  F010         	call	___awmod	;wreg free
  5585  0014A4  5001               	movf	(0+?___awmod),c,w
  5586  0014A6  0D03               	mullw	03h
  5587  0014A8  0E28               	movlw	low((__npowers_))
  5588  0014AA  24F3               	addwf	(prodl),c,w
  5589  0014AC  6EF6               	movwf	tblptrl
  5590  0014AE  6AF7               	clrf	tblptrh
  5591  0014B0  0E06               	movlw	high((__npowers_))
  5592  0014B2  22F7               	addwfc	tblptrh
  5593  0014B4  0009               	tblrd	*+
  5594  0014B6  FFFF               		dw	0FFFFh; errata NOP
  5595                           
  5596  0014B8  CFF5 F034          	movff	tablat,??_fround+0+0
  5597  0014BC  0009               	tblrd	*+
  5598  0014BE  FFFF               		dw	0FFFFh; errata NOP
  5599                           
  5600  0014C0  CFF5 F035          	movff	tablat,??_fround+0+0+1
  5601  0014C4  0009               	tblrd	*+
  5602  0014C6  FFFF               		dw	0FFFFh; errata NOP
  5603                           
  5604  0014C8  CFF5 F036          	movff	tablat,??_fround+0+0+2
  5605  0014CC  C034  F023         	movff	??_fround+0+0,0+((c:?___ftmul)+03h)
  5606  0014D0  C035  F024         	movff	??_fround+0+1,1+((c:?___ftmul)+03h)
  5607  0014D4  C036  F025         	movff	??_fround+0+2,2+((c:?___ftmul)+03h)
  5608  0014D8  0E00               	movlw	high(0Ah)
  5609  0014DA  6E0B               	movwf	(1+((c:?___awdiv)+02h)),c
  5610  0014DC  0E0A               	movlw	low(0Ah)
  5611  0014DE  6E0A               	movwf	(0+((c:?___awdiv)+02h)),c
  5612  0014E0  C031  F008         	movff	(c:fround@prec),(c:?___awdiv)
  5613  0014E4  6A09               	clrf	((c:?___awdiv+1)),c
  5614  0014E6  EC96  F010         	call	___awdiv	;wreg free
  5615  0014EA  5008               	movf	(0+?___awdiv),c,w
  5616  0014EC  0F09               	addlw	low(09h)
  5617  0014EE  0D03               	mullw	03h
  5618  0014F0  0E28               	movlw	low((__npowers_))
  5619  0014F2  24F3               	addwf	(prodl),c,w
  5620  0014F4  6EF6               	movwf	tblptrl
  5621  0014F6  6AF7               	clrf	tblptrh
  5622  0014F8  0E06               	movlw	high((__npowers_))
  5623  0014FA  22F7               	addwfc	tblptrh
  5624  0014FC  0009               	tblrd	*+
  5625  0014FE  FFFF               		dw	0FFFFh; errata NOP
  5626                           
  5627  001500  CFF5 F037          	movff	tablat,??_fround+3+0
  5628  001504  0009               	tblrd	*+
  5629  001506  FFFF               		dw	0FFFFh; errata NOP
  5630                           
  5631  001508  CFF5 F038          	movff	tablat,??_fround+3+0+1
  5632  00150C  0009               	tblrd	*+
  5633  00150E  FFFF               		dw	0FFFFh; errata NOP
  5634                           
  5635  001510  CFF5 F039          	movff	tablat,??_fround+3+0+2
  5636  001514  C037  F020         	movff	??_fround+3+0,(c:?___ftmul)
  5637  001518  C038  F021         	movff	??_fround+3+1,(c:?___ftmul+1)
  5638  00151C  C039  F022         	movff	??_fround+3+2,(c:?___ftmul+2)
  5639  001520  EC6A  F00D         	call	___ftmul	;wreg free
  5640  001524  C020  F03D         	movff	0+?___ftmul,(c:_fround$932)
  5641  001528  C021  F03E         	movff	1+?___ftmul,(c:_fround$932+1)
  5642  00152C  C022  F03F         	movff	2+?___ftmul,(c:_fround$932+2)
  5643                           	
  5644  001530                     l4531:
  5645  001530  C03D  F020         	movff	(c:_fround$932),(c:?___ftmul)
  5646  001534  C03E  F021         	movff	(c:_fround$932+1),(c:?___ftmul+1)
  5647  001538  C03F  F022         	movff	(c:_fround$932+2),(c:?___ftmul+2)
  5648  00153C  0E00               	movlw	low(float24(0.50000000000000000))
  5649  00153E  6E23               	movwf	(0+((c:?___ftmul)+03h)),c
  5650  001540  0E00               	movlw	high(float24(0.50000000000000000))
  5651  001542  6E24               	movwf	(1+((c:?___ftmul)+03h)),c
  5652  001544  0E3F               	movlw	low highword(float24(0.50000000000000000))
  5653  001546  6E25               	movwf	(2+((c:?___ftmul)+03h)),c
  5654                           
  5655  001548  EC6A  F00D         	call	___ftmul	;wreg free
  5656  00154C  C020  F031         	movff	0+?___ftmul,(c:?_fround)
  5657  001550  C021  F032         	movff	1+?___ftmul,(c:?_fround+1)
  5658  001554  C022  F033         	movff	2+?___ftmul,(c:?_fround+2)
  5659  001558  D02B               	goto	l203
  5660                           	
  5661  00155A                     l4533:
  5662  00155A  D02A               	goto	l203
  5663                           	
  5664  00155C                     l205:
  5665  00155C  D000               	goto	l4535
  5666                           	line	417
  5667                           	
  5668  00155E                     l204:
  5669                           	
  5670  00155E                     l4535:
  5671  00155E  5031               	movf	((c:fround@prec)),c,w
  5672  001560  0D03               	mullw	03h
  5673  001562  0E28               	movlw	low((__npowers_))
  5674  001564  24F3               	addwf	(prodl),c,w
  5675  001566  6EF6               	movwf	tblptrl
  5676  001568  6AF7               	clrf	tblptrh
  5677  00156A  0E06               	movlw	high((__npowers_))
  5678  00156C  22F7               	addwfc	tblptrh
  5679  00156E  0009               	tblrd	*+
  5680  001570  FFFF               		dw	0FFFFh; errata NOP
  5681                           
  5682  001572  CFF5 F034          	movff	tablat,??_fround+0+0
  5683  001576  0009               	tblrd	*+
  5684  001578  FFFF               		dw	0FFFFh; errata NOP
  5685                           
  5686  00157A  CFF5 F035          	movff	tablat,??_fround+0+0+1
  5687  00157E  0009               	tblrd	*+
  5688  001580  FFFF               		dw	0FFFFh; errata NOP
  5689                           
  5690  001582  CFF5 F036          	movff	tablat,??_fround+0+0+2
  5691  001586  C034  F020         	movff	??_fround+0+0,(c:?___ftmul)
  5692  00158A  C035  F021         	movff	??_fround+0+1,(c:?___ftmul+1)
  5693  00158E  C036  F022         	movff	??_fround+0+2,(c:?___ftmul+2)
  5694  001592  0E00               	movlw	low(float24(0.50000000000000000))
  5695  001594  6E23               	movwf	(0+((c:?___ftmul)+03h)),c
  5696  001596  0E00               	movlw	high(float24(0.50000000000000000))
  5697  001598  6E24               	movwf	(1+((c:?___ftmul)+03h)),c
  5698  00159A  0E3F               	movlw	low highword(float24(0.50000000000000000))
  5699  00159C  6E25               	movwf	(2+((c:?___ftmul)+03h)),c
  5700                           
  5701  00159E  EC6A  F00D         	call	___ftmul	;wreg free
  5702  0015A2  C020  F031         	movff	0+?___ftmul,(c:?_fround)
  5703  0015A6  C021  F032         	movff	1+?___ftmul,(c:?_fround+1)
  5704  0015AA  C022  F033         	movff	2+?___ftmul,(c:?_fround+2)
  5705  0015AE  D000               	goto	l203
  5706                           	
  5707  0015B0                     l4537:
  5708                           	line	418
  5709                           	
  5710  0015B0                     l203:
  5711  0015B0  0012               	return
  5712  0015B2  FFFF               	dw	0FFFFh; errata NOP
  5713                           	opt stack 0
  5714                           GLOBAL	__end_of_fround
  5715  0015B4                     	__end_of_fround:
  5716                           	signat	_fround,4219
  5717                           	global	_scale
  5718                           
  5719 ;; *************** function _scale *****************
  5720 ;; Defined at:
  5721 ;;		line 426 in file "C:\Program Files\HI-TECH Software\PICC-18\9.80\lib\doprnt.c"
  5722 ;; Parameters:    Size  Location     Type
  5723 ;;  scl             1   48[COMRAM] char 
  5724 ;; Auto vars:     Size  Location     Type
  5725 ;;		None
  5726 ;; Return value:  Size  Location     Type
  5727 ;;                  3   48[COMRAM] char 
  5728 ;; Registers used:
  5729 ;;		wreg, status,2, status,0, tblptrl, tblptrh, tblptru, prodl, prodh, cstack
  5730 ;; Tracked objects:
  5731 ;;		On entry : 0/0
  5732 ;;		On exit  : 0/0
  5733 ;;		Unchanged: 0/0
  5734 ;; Data sizes:     COMRAM   BANK0   BANK1   BANK2   BANK3   BANK4   BANK5
  5735 ;;      Params:         3       0       0       0       0       0       0
  5736 ;;      Locals:         3       0       0       0       0       0       0
  5737 ;;      Temps:          6       0       0       0       0       0       0
  5738 ;;      Totals:        12       0       0       0       0       0       0
  5739 ;;Total ram usage:       12 bytes
  5740 ;; Hardware stack levels used:    1
  5741 ;; Hardware stack levels required when called:    2
  5742 ;; This function calls:
  5743 ;;		___awmod
  5744 ;;		___awdiv
  5745 ;;		___ftmul
  5746 ;; This function is called by:
  5747 ;;		_sprintf
  5748 ;; This function uses a non-reentrant model
  5749 ;;
  5750                           psect	text15,class=CODE,space=0,reloc=2
  5751                           global __ptext15
  5752  000EDA                     __ptext15:
  5753                           psect	text15
  5754                           	file	"C:\Program Files\HI-TECH Software\PICC-18\9.80\sources\doprnt.c"
  5755                           	line	426
  5756                           	global	__size_of_scale
  5757  0000                     	__size_of_scale	equ	__end_of_scale-_scale
  5758                           	
  5759  000EDA                     _scale:
  5760                           	opt	stack 26
  5761  000EDA  FFFF               	dw	0FFFFh
  5762                           	line	428
  5763                           	
  5764  000EDC                     l4539:
  5765  000EDC  AE31               	btfss	((c:scale@scl)),c,7
  5766  000EDE  D001               	goto	u3641
  5767  000EE0  D001               	goto	u3640
  5768  000EE2                     u3641:
  5769  000EE2  D115               	goto	l4561
  5770  000EE4                     u3640:
  5771                           	line	429
  5772                           	
  5773  000EE4                     l4541:
  5774  000EE4  6C31               	negf	((c:scale@scl)),c
  5775                           	line	430
  5776                           	
  5777  000EE6                     l4543:
  5778  000EE6  5031               	movf	((c:scale@scl)),c,w
  5779  000EE8  0A80               	xorlw	80h
  5780  000EEA  0F12               	addlw	-((06Eh)^80h)
  5781  000EEC  A0D8               	btfss	status,0
  5782  000EEE  D001               	goto	u3651
  5783  000EF0  D001               	goto	u3650
  5784  000EF2                     u3651:
  5785  000EF2  D094               	goto	l4551
  5786  000EF4                     u3650:
  5787                           	line	431
  5788                           	
  5789  000EF4                     l4545:
  5790  000EF4  0E00               	movlw	high(0Ah)
  5791  000EF6  6E0B               	movwf	(1+((c:?___awdiv)+02h)),c
  5792  000EF8  0E0A               	movlw	low(0Ah)
  5793  000EFA  6E0A               	movwf	(0+((c:?___awdiv)+02h)),c
  5794  000EFC  0E00               	movlw	high(064h)
  5795  000EFE  6E04               	movwf	(1+((c:?___awmod)+02h)),c
  5796  000F00  0E64               	movlw	low(064h)
  5797  000F02  6E03               	movwf	(0+((c:?___awmod)+02h)),c
  5798  000F04  5031               	movf	((c:scale@scl)),c,w
  5799  000F06  6E01               	movwf	((c:?___awmod)),c
  5800  000F08  6A02               	clrf	((c:?___awmod+1)),c
  5801  000F0A  BE01               	btfsc	((c:?___awmod)),c,7
  5802  000F0C  0602               	decf	((c:?___awmod+1)),c
  5803  000F0E  ECF6  F010         	call	___awmod	;wreg free
  5804  000F12  C001  F008         	movff	0+?___awmod,(c:?___awdiv)
  5805  000F16  C002  F009         	movff	1+?___awmod,(c:?___awdiv+1)
  5806  000F1A  EC96  F010         	call	___awdiv	;wreg free
  5807  000F1E  5008               	movf	(0+?___awdiv),c,w
  5808  000F20  0F09               	addlw	low(09h)
  5809  000F22  0D03               	mullw	03h
  5810  000F24  0E28               	movlw	low((__npowers_))
  5811  000F26  24F3               	addwf	(prodl),c,w
  5812  000F28  6EF6               	movwf	tblptrl
  5813  000F2A  6AF7               	clrf	tblptrh
  5814  000F2C  0E06               	movlw	high((__npowers_))
  5815  000F2E  22F7               	addwfc	tblptrh
  5816  000F30  0009               	tblrd	*+
  5817  000F32  FFFF               		dw	0FFFFh; errata NOP
  5818                           
  5819  000F34  CFF5 F034          	movff	tablat,??_scale+0+0
  5820  000F38  0009               	tblrd	*+
  5821  000F3A  FFFF               		dw	0FFFFh; errata NOP
  5822                           
  5823  000F3C  CFF5 F035          	movff	tablat,??_scale+0+0+1
  5824  000F40  0009               	tblrd	*+
  5825  000F42  FFFF               		dw	0FFFFh; errata NOP
  5826                           
  5827  000F44  CFF5 F036          	movff	tablat,??_scale+0+0+2
  5828  000F48  C034  F023         	movff	??_scale+0+0,0+((c:?___ftmul)+03h)
  5829  000F4C  C035  F024         	movff	??_scale+0+1,1+((c:?___ftmul)+03h)
  5830  000F50  C036  F025         	movff	??_scale+0+2,2+((c:?___ftmul)+03h)
  5831  000F54  0E00               	movlw	high(064h)
  5832  000F56  6E0B               	movwf	(1+((c:?___awdiv)+02h)),c
  5833  000F58  0E64               	movlw	low(064h)
  5834  000F5A  6E0A               	movwf	(0+((c:?___awdiv)+02h)),c
  5835  000F5C  5031               	movf	((c:scale@scl)),c,w
  5836  000F5E  6E08               	movwf	((c:?___awdiv)),c
  5837  000F60  6A09               	clrf	((c:?___awdiv+1)),c
  5838  000F62  BE08               	btfsc	((c:?___awdiv)),c,7
  5839  000F64  0609               	decf	((c:?___awdiv+1)),c
  5840  000F66  EC96  F010         	call	___awdiv	;wreg free
  5841  000F6A  5008               	movf	(0+?___awdiv),c,w
  5842  000F6C  0F12               	addlw	low(012h)
  5843  000F6E  0D03               	mullw	03h
  5844  000F70  0E28               	movlw	low((__npowers_))
  5845  000F72  24F3               	addwf	(prodl),c,w
  5846  000F74  6EF6               	movwf	tblptrl
  5847  000F76  6AF7               	clrf	tblptrh
  5848  000F78  0E06               	movlw	high((__npowers_))
  5849  000F7A  22F7               	addwfc	tblptrh
  5850  000F7C  0009               	tblrd	*+
  5851  000F7E  FFFF               		dw	0FFFFh; errata NOP
  5852                           
  5853  000F80  CFF5 F037          	movff	tablat,??_scale+3+0
  5854  000F84  0009               	tblrd	*+
  5855  000F86  FFFF               		dw	0FFFFh; errata NOP
  5856                           
  5857  000F88  CFF5 F038          	movff	tablat,??_scale+3+0+1
  5858  000F8C  0009               	tblrd	*+
  5859  000F8E  FFFF               		dw	0FFFFh; errata NOP
  5860                           
  5861  000F90  CFF5 F039          	movff	tablat,??_scale+3+0+2
  5862  000F94  C037  F020         	movff	??_scale+3+0,(c:?___ftmul)
  5863  000F98  C038  F021         	movff	??_scale+3+1,(c:?___ftmul+1)
  5864  000F9C  C039  F022         	movff	??_scale+3+2,(c:?___ftmul+2)
  5865  000FA0  EC6A  F00D         	call	___ftmul	;wreg free
  5866  000FA4  C020  F03A         	movff	0+?___ftmul,(c:_scale$934)
  5867  000FA8  C021  F03B         	movff	1+?___ftmul,(c:_scale$934+1)
  5868  000FAC  C022  F03C         	movff	2+?___ftmul,(c:_scale$934+2)
  5869  000FB0  C03A  F020         	movff	(c:_scale$934),(c:?___ftmul)
  5870  000FB4  C03B  F021         	movff	(c:_scale$934+1),(c:?___ftmul+1)
  5871  000FB8  C03C  F022         	movff	(c:_scale$934+2),(c:?___ftmul+2)
  5872  000FBC  0E00               	movlw	high(0Ah)
  5873  000FBE  6E04               	movwf	(1+((c:?___awmod)+02h)),c
  5874  000FC0  0E0A               	movlw	low(0Ah)
  5875  000FC2  6E03               	movwf	(0+((c:?___awmod)+02h)),c
  5876  000FC4  5031               	movf	((c:scale@scl)),c,w
  5877  000FC6  6E01               	movwf	((c:?___awmod)),c
  5878  000FC8  6A02               	clrf	((c:?___awmod+1)),c
  5879  000FCA  BE01               	btfsc	((c:?___awmod)),c,7
  5880  000FCC  0602               	decf	((c:?___awmod+1)),c
  5881  000FCE  ECF6  F010         	call	___awmod	;wreg free
  5882  000FD2  5001               	movf	(0+?___awmod),c,w
  5883  000FD4  0D03               	mullw	03h
  5884  000FD6  0E28               	movlw	low((__npowers_))
  5885  000FD8  24F3               	addwf	(prodl),c,w
  5886  000FDA  6EF6               	movwf	tblptrl
  5887  000FDC  6AF7               	clrf	tblptrh
  5888  000FDE  0E06               	movlw	high((__npowers_))
  5889  000FE0  22F7               	addwfc	tblptrh
  5890  000FE2  0009               	tblrd	*+
  5891  000FE4  FFFF               		dw	0FFFFh; errata NOP
  5892                           
  5893  000FE6  CFF5 F034          	movff	tablat,??_scale+0+0
  5894  000FEA  0009               	tblrd	*+
  5895  000FEC  FFFF               		dw	0FFFFh; errata NOP
  5896                           
  5897  000FEE  CFF5 F035          	movff	tablat,??_scale+0+0+1
  5898  000FF2  0009               	tblrd	*+
  5899  000FF4  FFFF               		dw	0FFFFh; errata NOP
  5900                           
  5901  000FF6  CFF5 F036          	movff	tablat,??_scale+0+0+2
  5902  000FFA  C034  F023         	movff	??_scale+0+0,0+((c:?___ftmul)+03h)
  5903  000FFE  C035  F024         	movff	??_scale+0+1,1+((c:?___ftmul)+03h)
  5904  001002  C036  F025         	movff	??_scale+0+2,2+((c:?___ftmul)+03h)
  5905  001006  EC6A  F00D         	call	___ftmul	;wreg free
  5906  00100A  C020  F031         	movff	0+?___ftmul,(c:?_scale)
  5907  00100E  C021  F032         	movff	1+?___ftmul,(c:?_scale+1)
  5908  001012  C022  F033         	movff	2+?___ftmul,(c:?_scale+2)
  5909  001016  D18E               	goto	l210
  5910                           	
  5911  001018                     l4547:
  5912  001018  D18D               	goto	l210
  5913                           	
  5914  00101A                     l4549:
  5915  00101A  D05D               	goto	l4557
  5916                           	line	432
  5917                           	
  5918  00101C                     l209:
  5919                           	
  5920  00101C                     l4551:
  5921  00101C  5031               	movf	((c:scale@scl)),c,w
  5922  00101E  0A80               	xorlw	80h
  5923  001020  0F75               	addlw	-((0Bh)^80h)
  5924  001022  A0D8               	btfss	status,0
  5925  001024  D001               	goto	u3661
  5926  001026  D001               	goto	u3660
  5927  001028                     u3661:
  5928  001028  D056               	goto	l4557
  5929  00102A                     u3660:
  5930                           	line	433
  5931                           	
  5932  00102A                     l4553:
  5933  00102A  0E00               	movlw	high(0Ah)
  5934  00102C  6E0B               	movwf	(1+((c:?___awdiv)+02h)),c
  5935  00102E  0E0A               	movlw	low(0Ah)
  5936  001030  6E0A               	movwf	(0+((c:?___awdiv)+02h)),c
  5937  001032  5031               	movf	((c:scale@scl)),c,w
  5938  001034  6E08               	movwf	((c:?___awdiv)),c
  5939  001036  6A09               	clrf	((c:?___awdiv+1)),c
  5940  001038  BE08               	btfsc	((c:?___awdiv)),c,7
  5941  00103A  0609               	decf	((c:?___awdiv+1)),c
  5942  00103C  EC96  F010         	call	___awdiv	;wreg free
  5943  001040  5008               	movf	(0+?___awdiv),c,w
  5944  001042  0F09               	addlw	low(09h)
  5945  001044  0D03               	mullw	03h
  5946  001046  0E28               	movlw	low((__npowers_))
  5947  001048  24F3               	addwf	(prodl),c,w
  5948  00104A  6EF6               	movwf	tblptrl
  5949  00104C  6AF7               	clrf	tblptrh
  5950  00104E  0E06               	movlw	high((__npowers_))
  5951  001050  22F7               	addwfc	tblptrh
  5952  001052  0009               	tblrd	*+
  5953  001054  FFFF               		dw	0FFFFh; errata NOP
  5954                           
  5955  001056  CFF5 F034          	movff	tablat,??_scale+0+0
  5956  00105A  0009               	tblrd	*+
  5957  00105C  FFFF               		dw	0FFFFh; errata NOP
  5958                           
  5959  00105E  CFF5 F035          	movff	tablat,??_scale+0+0+1
  5960  001062  0009               	tblrd	*+
  5961  001064  FFFF               		dw	0FFFFh; errata NOP
  5962                           
  5963  001066  CFF5 F036          	movff	tablat,??_scale+0+0+2
  5964  00106A  C034  F020         	movff	??_scale+0+0,(c:?___ftmul)
  5965  00106E  C035  F021         	movff	??_scale+0+1,(c:?___ftmul+1)
  5966  001072  C036  F022         	movff	??_scale+0+2,(c:?___ftmul+2)
  5967  001076  0E00               	movlw	high(0Ah)
  5968  001078  6E04               	movwf	(1+((c:?___awmod)+02h)),c
  5969  00107A  0E0A               	movlw	low(0Ah)
  5970  00107C  6E03               	movwf	(0+((c:?___awmod)+02h)),c
  5971  00107E  5031               	movf	((c:scale@scl)),c,w
  5972  001080  6E01               	movwf	((c:?___awmod)),c
  5973  001082  6A02               	clrf	((c:?___awmod+1)),c
  5974  001084  BE01               	btfsc	((c:?___awmod)),c,7
  5975  001086  0602               	decf	((c:?___awmod+1)),c
  5976  001088  ECF6  F010         	call	___awmod	;wreg free
  5977  00108C  5001               	movf	(0+?___awmod),c,w
  5978  00108E  0D03               	mullw	03h
  5979  001090  0E28               	movlw	low((__npowers_))
  5980  001092  24F3               	addwf	(prodl),c,w
  5981  001094  6EF6               	movwf	tblptrl
  5982  001096  6AF7               	clrf	tblptrh
  5983  001098  0E06               	movlw	high((__npowers_))
  5984  00109A  22F7               	addwfc	tblptrh
  5985  00109C  0009               	tblrd	*+
  5986  00109E  FFFF               		dw	0FFFFh; errata NOP
  5987                           
  5988  0010A0  CFF5 F037          	movff	tablat,??_scale+3+0
  5989  0010A4  0009               	tblrd	*+
  5990  0010A6  FFFF               		dw	0FFFFh; errata NOP
  5991                           
  5992  0010A8  CFF5 F038          	movff	tablat,??_scale+3+0+1
  5993  0010AC  0009               	tblrd	*+
  5994  0010AE  FFFF               		dw	0FFFFh; errata NOP
  5995                           
  5996  0010B0  CFF5 F039          	movff	tablat,??_scale+3+0+2
  5997  0010B4  C037  F023         	movff	??_scale+3+0,0+((c:?___ftmul)+03h)
  5998  0010B8  C038  F024         	movff	??_scale+3+1,1+((c:?___ftmul)+03h)
  5999  0010BC  C039  F025         	movff	??_scale+3+2,2+((c:?___ftmul)+03h)
  6000  0010C0  EC6A  F00D         	call	___ftmul	;wreg free
  6001  0010C4  C020  F031         	movff	0+?___ftmul,(c:?_scale)
  6002  0010C8  C021  F032         	movff	1+?___ftmul,(c:?_scale+1)
  6003  0010CC  C022  F033         	movff	2+?___ftmul,(c:?_scale+2)
  6004  0010D0  D131               	goto	l210
  6005                           	
  6006  0010D2                     l4555:
  6007  0010D2  D130               	goto	l210
  6008                           	
  6009  0010D4                     l212:
  6010  0010D4  D000               	goto	l4557
  6011                           	line	434
  6012                           	
  6013  0010D6                     l211:
  6014                           	
  6015  0010D6                     l4557:
  6016  0010D6  5031               	movf	((c:scale@scl)),c,w
  6017  0010D8  0D03               	mullw	03h
  6018  0010DA  0E28               	movlw	low((__npowers_))
  6019  0010DC  24F3               	addwf	(prodl),c,w
  6020  0010DE  6EF6               	movwf	tblptrl
  6021  0010E0  6AF7               	clrf	tblptrh
  6022  0010E2  0E06               	movlw	high((__npowers_))
  6023  0010E4  22F7               	addwfc	tblptrh
  6024  0010E6  0009               	tblrd	*+
  6025  0010E8  FFFF               		dw	0FFFFh; errata NOP
  6026                           
  6027  0010EA  CFF5 F034          	movff	tablat,??_scale+0+0
  6028  0010EE  0009               	tblrd	*+
  6029  0010F0  FFFF               		dw	0FFFFh; errata NOP
  6030                           
  6031  0010F2  CFF5 F035          	movff	tablat,??_scale+0+0+1
  6032  0010F6  0009               	tblrd	*+
  6033  0010F8  FFFF               		dw	0FFFFh; errata NOP
  6034                           
  6035  0010FA  CFF5 F036          	movff	tablat,??_scale+0+0+2
  6036  0010FE  C034  F031         	movff	??_scale+0+0,(c:?_scale)
  6037  001102  C035  F032         	movff	??_scale+0+1,(c:?_scale+1)
  6038  001106  C036  F033         	movff	??_scale+0+2,(c:?_scale+2)
  6039  00110A  D114               	goto	l210
  6040                           	
  6041  00110C                     l4559:
  6042  00110C  D113               	goto	l210
  6043                           	line	435
  6044                           	
  6045  00110E                     l208:
  6046                           	line	436
  6047                           	
  6048  00110E                     l4561:
  6049  00110E  5031               	movf	((c:scale@scl)),c,w
  6050  001110  0A80               	xorlw	80h
  6051  001112  0F12               	addlw	-((06Eh)^80h)
  6052  001114  A0D8               	btfss	status,0
  6053  001116  D001               	goto	u3671
  6054  001118  D001               	goto	u3670
  6055  00111A                     u3671:
  6056  00111A  D094               	goto	l4569
  6057  00111C                     u3670:
  6058                           	line	437
  6059                           	
  6060  00111C                     l4563:
  6061  00111C  0E00               	movlw	high(0Ah)
  6062  00111E  6E0B               	movwf	(1+((c:?___awdiv)+02h)),c
  6063  001120  0E0A               	movlw	low(0Ah)
  6064  001122  6E0A               	movwf	(0+((c:?___awdiv)+02h)),c
  6065  001124  0E00               	movlw	high(064h)
  6066  001126  6E04               	movwf	(1+((c:?___awmod)+02h)),c
  6067  001128  0E64               	movlw	low(064h)
  6068  00112A  6E03               	movwf	(0+((c:?___awmod)+02h)),c
  6069  00112C  5031               	movf	((c:scale@scl)),c,w
  6070  00112E  6E01               	movwf	((c:?___awmod)),c
  6071  001130  6A02               	clrf	((c:?___awmod+1)),c
  6072  001132  BE01               	btfsc	((c:?___awmod)),c,7
  6073  001134  0602               	decf	((c:?___awmod+1)),c
  6074  001136  ECF6  F010         	call	___awmod	;wreg free
  6075  00113A  C001  F008         	movff	0+?___awmod,(c:?___awdiv)
  6076  00113E  C002  F009         	movff	1+?___awmod,(c:?___awdiv+1)
  6077  001142  EC96  F010         	call	___awdiv	;wreg free
  6078  001146  5008               	movf	(0+?___awdiv),c,w
  6079  001148  0F09               	addlw	low(09h)
  6080  00114A  0D03               	mullw	03h
  6081  00114C  0E4F               	movlw	low((__powers_))
  6082  00114E  24F3               	addwf	(prodl),c,w
  6083  001150  6EF6               	movwf	tblptrl
  6084  001152  6AF7               	clrf	tblptrh
  6085  001154  0E06               	movlw	high((__powers_))
  6086  001156  22F7               	addwfc	tblptrh
  6087  001158  0009               	tblrd	*+
  6088  00115A  FFFF               		dw	0FFFFh; errata NOP
  6089                           
  6090  00115C  CFF5 F034          	movff	tablat,??_scale+0+0
  6091  001160  0009               	tblrd	*+
  6092  001162  FFFF               		dw	0FFFFh; errata NOP
  6093                           
  6094  001164  CFF5 F035          	movff	tablat,??_scale+0+0+1
  6095  001168  0009               	tblrd	*+
  6096  00116A  FFFF               		dw	0FFFFh; errata NOP
  6097                           
  6098  00116C  CFF5 F036          	movff	tablat,??_scale+0+0+2
  6099  001170  C034  F023         	movff	??_scale+0+0,0+((c:?___ftmul)+03h)
  6100  001174  C035  F024         	movff	??_scale+0+1,1+((c:?___ftmul)+03h)
  6101  001178  C036  F025         	movff	??_scale+0+2,2+((c:?___ftmul)+03h)
  6102  00117C  0E00               	movlw	high(064h)
  6103  00117E  6E0B               	movwf	(1+((c:?___awdiv)+02h)),c
  6104  001180  0E64               	movlw	low(064h)
  6105  001182  6E0A               	movwf	(0+((c:?___awdiv)+02h)),c
  6106  001184  5031               	movf	((c:scale@scl)),c,w
  6107  001186  6E08               	movwf	((c:?___awdiv)),c
  6108  001188  6A09               	clrf	((c:?___awdiv+1)),c
  6109  00118A  BE08               	btfsc	((c:?___awdiv)),c,7
  6110  00118C  0609               	decf	((c:?___awdiv+1)),c
  6111  00118E  EC96  F010         	call	___awdiv	;wreg free
  6112  001192  5008               	movf	(0+?___awdiv),c,w
  6113  001194  0F12               	addlw	low(012h)
  6114  001196  0D03               	mullw	03h
  6115  001198  0E4F               	movlw	low((__powers_))
  6116  00119A  24F3               	addwf	(prodl),c,w
  6117  00119C  6EF6               	movwf	tblptrl
  6118  00119E  6AF7               	clrf	tblptrh
  6119  0011A0  0E06               	movlw	high((__powers_))
  6120  0011A2  22F7               	addwfc	tblptrh
  6121  0011A4  0009               	tblrd	*+
  6122  0011A6  FFFF               		dw	0FFFFh; errata NOP
  6123                           
  6124  0011A8  CFF5 F037          	movff	tablat,??_scale+3+0
  6125  0011AC  0009               	tblrd	*+
  6126  0011AE  FFFF               		dw	0FFFFh; errata NOP
  6127                           
  6128  0011B0  CFF5 F038          	movff	tablat,??_scale+3+0+1
  6129  0011B4  0009               	tblrd	*+
  6130  0011B6  FFFF               		dw	0FFFFh; errata NOP
  6131                           
  6132  0011B8  CFF5 F039          	movff	tablat,??_scale+3+0+2
  6133  0011BC  C037  F020         	movff	??_scale+3+0,(c:?___ftmul)
  6134  0011C0  C038  F021         	movff	??_scale+3+1,(c:?___ftmul+1)
  6135  0011C4  C039  F022         	movff	??_scale+3+2,(c:?___ftmul+2)
  6136  0011C8  EC6A  F00D         	call	___ftmul	;wreg free
  6137  0011CC  C020  F03A         	movff	0+?___ftmul,(c:_scale$934)
  6138  0011D0  C021  F03B         	movff	1+?___ftmul,(c:_scale$934+1)
  6139  0011D4  C022  F03C         	movff	2+?___ftmul,(c:_scale$934+2)
  6140  0011D8  C03A  F020         	movff	(c:_scale$934),(c:?___ftmul)
  6141  0011DC  C03B  F021         	movff	(c:_scale$934+1),(c:?___ftmul+1)
  6142  0011E0  C03C  F022         	movff	(c:_scale$934+2),(c:?___ftmul+2)
  6143  0011E4  0E00               	movlw	high(0Ah)
  6144  0011E6  6E04               	movwf	(1+((c:?___awmod)+02h)),c
  6145  0011E8  0E0A               	movlw	low(0Ah)
  6146  0011EA  6E03               	movwf	(0+((c:?___awmod)+02h)),c
  6147  0011EC  5031               	movf	((c:scale@scl)),c,w
  6148  0011EE  6E01               	movwf	((c:?___awmod)),c
  6149  0011F0  6A02               	clrf	((c:?___awmod+1)),c
  6150  0011F2  BE01               	btfsc	((c:?___awmod)),c,7
  6151  0011F4  0602               	decf	((c:?___awmod+1)),c
  6152  0011F6  ECF6  F010         	call	___awmod	;wreg free
  6153  0011FA  5001               	movf	(0+?___awmod),c,w
  6154  0011FC  0D03               	mullw	03h
  6155  0011FE  0E4F               	movlw	low((__powers_))
  6156  001200  24F3               	addwf	(prodl),c,w
  6157  001202  6EF6               	movwf	tblptrl
  6158  001204  6AF7               	clrf	tblptrh
  6159  001206  0E06               	movlw	high((__powers_))
  6160  001208  22F7               	addwfc	tblptrh
  6161  00120A  0009               	tblrd	*+
  6162  00120C  FFFF               		dw	0FFFFh; errata NOP
  6163                           
  6164  00120E  CFF5 F034          	movff	tablat,??_scale+0+0
  6165  001212  0009               	tblrd	*+
  6166  001214  FFFF               		dw	0FFFFh; errata NOP
  6167                           
  6168  001216  CFF5 F035          	movff	tablat,??_scale+0+0+1
  6169  00121A  0009               	tblrd	*+
  6170  00121C  FFFF               		dw	0FFFFh; errata NOP
  6171                           
  6172  00121E  CFF5 F036          	movff	tablat,??_scale+0+0+2
  6173  001222  C034  F023         	movff	??_scale+0+0,0+((c:?___ftmul)+03h)
  6174  001226  C035  F024         	movff	??_scale+0+1,1+((c:?___ftmul)+03h)
  6175  00122A  C036  F025         	movff	??_scale+0+2,2+((c:?___ftmul)+03h)
  6176  00122E  EC6A  F00D         	call	___ftmul	;wreg free
  6177  001232  C020  F031         	movff	0+?___ftmul,(c:?_scale)
  6178  001236  C021  F032         	movff	1+?___ftmul,(c:?_scale+1)
  6179  00123A  C022  F033         	movff	2+?___ftmul,(c:?_scale+2)
  6180  00123E  D07A               	goto	l210
  6181                           	
  6182  001240                     l4565:
  6183  001240  D079               	goto	l210
  6184                           	
  6185  001242                     l4567:
  6186  001242  D05D               	goto	l4575
  6187                           	line	438
  6188                           	
  6189  001244                     l213:
  6190                           	
  6191  001244                     l4569:
  6192  001244  5031               	movf	((c:scale@scl)),c,w
  6193  001246  0A80               	xorlw	80h
  6194  001248  0F75               	addlw	-((0Bh)^80h)
  6195  00124A  A0D8               	btfss	status,0
  6196  00124C  D001               	goto	u3681
  6197  00124E  D001               	goto	u3680
  6198  001250                     u3681:
  6199  001250  D056               	goto	l4575
  6200  001252                     u3680:
  6201                           	line	439
  6202                           	
  6203  001252                     l4571:
  6204  001252  0E00               	movlw	high(0Ah)
  6205  001254  6E0B               	movwf	(1+((c:?___awdiv)+02h)),c
  6206  001256  0E0A               	movlw	low(0Ah)
  6207  001258  6E0A               	movwf	(0+((c:?___awdiv)+02h)),c
  6208  00125A  5031               	movf	((c:scale@scl)),c,w
  6209  00125C  6E08               	movwf	((c:?___awdiv)),c
  6210  00125E  6A09               	clrf	((c:?___awdiv+1)),c
  6211  001260  BE08               	btfsc	((c:?___awdiv)),c,7
  6212  001262  0609               	decf	((c:?___awdiv+1)),c
  6213  001264  EC96  F010         	call	___awdiv	;wreg free
  6214  001268  5008               	movf	(0+?___awdiv),c,w
  6215  00126A  0F09               	addlw	low(09h)
  6216  00126C  0D03               	mullw	03h
  6217  00126E  0E4F               	movlw	low((__powers_))
  6218  001270  24F3               	addwf	(prodl),c,w
  6219  001272  6EF6               	movwf	tblptrl
  6220  001274  6AF7               	clrf	tblptrh
  6221  001276  0E06               	movlw	high((__powers_))
  6222  001278  22F7               	addwfc	tblptrh
  6223  00127A  0009               	tblrd	*+
  6224  00127C  FFFF               		dw	0FFFFh; errata NOP
  6225                           
  6226  00127E  CFF5 F034          	movff	tablat,??_scale+0+0
  6227  001282  0009               	tblrd	*+
  6228  001284  FFFF               		dw	0FFFFh; errata NOP
  6229                           
  6230  001286  CFF5 F035          	movff	tablat,??_scale+0+0+1
  6231  00128A  0009               	tblrd	*+
  6232  00128C  FFFF               		dw	0FFFFh; errata NOP
  6233                           
  6234  00128E  CFF5 F036          	movff	tablat,??_scale+0+0+2
  6235  001292  C034  F020         	movff	??_scale+0+0,(c:?___ftmul)
  6236  001296  C035  F021         	movff	??_scale+0+1,(c:?___ftmul+1)
  6237  00129A  C036  F022         	movff	??_scale+0+2,(c:?___ftmul+2)
  6238  00129E  0E00               	movlw	high(0Ah)
  6239  0012A0  6E04               	movwf	(1+((c:?___awmod)+02h)),c
  6240  0012A2  0E0A               	movlw	low(0Ah)
  6241  0012A4  6E03               	movwf	(0+((c:?___awmod)+02h)),c
  6242  0012A6  5031               	movf	((c:scale@scl)),c,w
  6243  0012A8  6E01               	movwf	((c:?___awmod)),c
  6244  0012AA  6A02               	clrf	((c:?___awmod+1)),c
  6245  0012AC  BE01               	btfsc	((c:?___awmod)),c,7
  6246  0012AE  0602               	decf	((c:?___awmod+1)),c
  6247  0012B0  ECF6  F010         	call	___awmod	;wreg free
  6248  0012B4  5001               	movf	(0+?___awmod),c,w
  6249  0012B6  0D03               	mullw	03h
  6250  0012B8  0E4F               	movlw	low((__powers_))
  6251  0012BA  24F3               	addwf	(prodl),c,w
  6252  0012BC  6EF6               	movwf	tblptrl
  6253  0012BE  6AF7               	clrf	tblptrh
  6254  0012C0  0E06               	movlw	high((__powers_))
  6255  0012C2  22F7               	addwfc	tblptrh
  6256  0012C4  0009               	tblrd	*+
  6257  0012C6  FFFF               		dw	0FFFFh; errata NOP
  6258                           
  6259  0012C8  CFF5 F037          	movff	tablat,??_scale+3+0
  6260  0012CC  0009               	tblrd	*+
  6261  0012CE  FFFF               		dw	0FFFFh; errata NOP
  6262                           
  6263  0012D0  CFF5 F038          	movff	tablat,??_scale+3+0+1
  6264  0012D4  0009               	tblrd	*+
  6265  0012D6  FFFF               		dw	0FFFFh; errata NOP
  6266                           
  6267  0012D8  CFF5 F039          	movff	tablat,??_scale+3+0+2
  6268  0012DC  C037  F023         	movff	??_scale+3+0,0+((c:?___ftmul)+03h)
  6269  0012E0  C038  F024         	movff	??_scale+3+1,1+((c:?___ftmul)+03h)
  6270  0012E4  C039  F025         	movff	??_scale+3+2,2+((c:?___ftmul)+03h)
  6271  0012E8  EC6A  F00D         	call	___ftmul	;wreg free
  6272  0012EC  C020  F031         	movff	0+?___ftmul,(c:?_scale)
  6273  0012F0  C021  F032         	movff	1+?___ftmul,(c:?_scale+1)
  6274  0012F4  C022  F033         	movff	2+?___ftmul,(c:?_scale+2)
  6275  0012F8  D01D               	goto	l210
  6276                           	
  6277  0012FA                     l4573:
  6278  0012FA  D01C               	goto	l210
  6279                           	
  6280  0012FC                     l215:
  6281  0012FC  D000               	goto	l4575
  6282                           	line	440
  6283                           	
  6284  0012FE                     l214:
  6285                           	
  6286  0012FE                     l4575:
  6287  0012FE  5031               	movf	((c:scale@scl)),c,w
  6288  001300  0D03               	mullw	03h
  6289  001302  0E4F               	movlw	low((__powers_))
  6290  001304  24F3               	addwf	(prodl),c,w
  6291  001306  6EF6               	movwf	tblptrl
  6292  001308  6AF7               	clrf	tblptrh
  6293  00130A  0E06               	movlw	high((__powers_))
  6294  00130C  22F7               	addwfc	tblptrh
  6295  00130E  0009               	tblrd	*+
  6296  001310  FFFF               		dw	0FFFFh; errata NOP
  6297                           
  6298  001312  CFF5 F034          	movff	tablat,??_scale+0+0
  6299  001316  0009               	tblrd	*+
  6300  001318  FFFF               		dw	0FFFFh; errata NOP
  6301                           
  6302  00131A  CFF5 F035          	movff	tablat,??_scale+0+0+1
  6303  00131E  0009               	tblrd	*+
  6304  001320  FFFF               		dw	0FFFFh; errata NOP
  6305                           
  6306  001322  CFF5 F036          	movff	tablat,??_scale+0+0+2
  6307  001326  C034  F031         	movff	??_scale+0+0,(c:?_scale)
  6308  00132A  C035  F032         	movff	??_scale+0+1,(c:?_scale+1)
  6309  00132E  C036  F033         	movff	??_scale+0+2,(c:?_scale+2)
  6310  001332  D000               	goto	l210
  6311                           	
  6312  001334                     l4577:
  6313                           	line	441
  6314                           	
  6315  001334                     l210:
  6316  001334  0012               	return
  6317  001336  FFFF               	dw	0FFFFh; errata NOP
  6318                           	opt stack 0
  6319                           GLOBAL	__end_of_scale
  6320  001338                     	__end_of_scale:
  6321                           	signat	_scale,4219
  6322                           	global	__tdiv_to_l_
  6323                           
  6324 ;; *************** function __tdiv_to_l_ *****************
  6325 ;; Defined at:
  6326 ;;		line 61 in file "C:\Program Files\HI-TECH Software\PICC-18\9.80\sources\ftdivl.c"
  6327 ;; Parameters:    Size  Location     Type
  6328 ;;  f1              3    0[COMRAM] float 
  6329 ;;  f2              3    3[COMRAM] float 
  6330 ;; Auto vars:     Size  Location     Type
  6331 ;;  quot            4   11[COMRAM] unsigned long 
  6332 ;;  exp1            1   16[COMRAM] unsigned char 
  6333 ;;  cntr            1   15[COMRAM] unsigned char 
  6334 ;; Return value:  Size  Location     Type
  6335 ;;                  4    0[COMRAM] unsigned long 
  6336 ;; Registers used:
  6337 ;;		wreg, status,2, status,0
  6338 ;; Tracked objects:
  6339 ;;		On entry : 0/0
  6340 ;;		On exit  : 0/0
  6341 ;;		Unchanged: 0/0
  6342 ;; Data sizes:     COMRAM   BANK0   BANK1   BANK2   BANK3   BANK4   BANK5
  6343 ;;      Params:         6       0       0       0       0       0       0
  6344 ;;      Locals:         6       0       0       0       0       0       0
  6345 ;;      Temps:          5       0       0       0       0       0       0
  6346 ;;      Totals:        17       0       0       0       0       0       0
  6347 ;;Total ram usage:       17 bytes
  6348 ;; Hardware stack levels used:    1
  6349 ;; This function calls:
  6350 ;;		Nothing
  6351 ;; This function is called by:
  6352 ;;		_sprintf
  6353 ;; This function uses a non-reentrant model
  6354 ;;
  6355                           psect	text16,class=CODE,space=0,reloc=2
  6356                           global __ptext16
  6357  0017F2                     __ptext16:
  6358                           psect	text16
  6359                           	file	"C:\Program Files\HI-TECH Software\PICC-18\9.80\sources\ftdivl.c"
  6360                           	line	61
  6361                           	global	__size_of__tdiv_to_l_
  6362  0000                     	__size_of__tdiv_to_l_	equ	__end_of__tdiv_to_l_-__tdiv_to_l_
  6363                           	
  6364  0017F2                     __tdiv_to_l_:
  6365                           	opt	stack 28
  6366  0017F2  FFFF               	dw	0FFFFh
  6367                           	line	66
  6368                           	
  6369  0017F4                     l3805:
  6370  0017F4  0E0F               	movlw	(0Fh)&0ffh
  6371  0017F6  6E07               	movwf	(??__tdiv_to_l_+0+0)&0ffh,c
  6372  0017F8  C001  F008         	movff	(c:__tdiv_to_l_@f1),??__tdiv_to_l_+1+0
  6373  0017FC  C002  F009         	movff	(c:__tdiv_to_l_@f1+1),??__tdiv_to_l_+1+0+1
  6374  001800  C003  F00A         	movff	(c:__tdiv_to_l_@f1+2),??__tdiv_to_l_+1+0+2
  6375  001804  2807               	incf	((??__tdiv_to_l_+0+0)),c,w
  6376  001806  6E0B               	movwf	(??__tdiv_to_l_+4+0)&0ffh,c
  6377  001808  D004               	goto	u2630
  6378  00180A                     u2635:
  6379  00180A  90D8               	bcf	status,0
  6380  00180C  320A               	rrcf	(??__tdiv_to_l_+1+2),c
  6381  00180E  3209               	rrcf	(??__tdiv_to_l_+1+1),c
  6382  001810  3208               	rrcf	(??__tdiv_to_l_+1+0),c
  6383  001812                     u2630:
  6384  001812  2E0B               	decfsz	(??__tdiv_to_l_+4+0)&0ffh,c
  6385  001814  D7FA               	goto	u2635
  6386  001816  5008               	movf	(??__tdiv_to_l_+1+0),c,w
  6387  001818  6E11               	movwf	((c:__tdiv_to_l_@exp1)),c
  6388  00181A  6611               	tstfsz	((c:__tdiv_to_l_@exp1))&0ffh
  6389  00181C  D001               	goto	u2641
  6390  00181E  D001               	goto	u2640
  6391  001820                     u2641:
  6392  001820  D00A               	goto	l3811
  6393  001822                     u2640:
  6394                           	line	67
  6395                           	
  6396  001822                     l3807:
  6397  001822  0E00               	movlw	low(0)
  6398  001824  6E01               	movwf	((c:?__tdiv_to_l_)),c
  6399  001826  0E00               	movlw	high(0)
  6400  001828  6E02               	movwf	((c:?__tdiv_to_l_+1)),c
  6401  00182A  0E00               	movlw	low highword(0)
  6402  00182C  6E03               	movwf	((c:?__tdiv_to_l_+2)),c
  6403  00182E  0E00               	movlw	high highword(0)
  6404  001830  6E04               	movwf	((c:?__tdiv_to_l_+3)),c
  6405  001832  D0A1               	goto	l618
  6406                           	
  6407  001834                     l3809:
  6408  001834  D0A0               	goto	l618
  6409                           	
  6410  001836                     l617:
  6411                           	line	68
  6412                           	
  6413  001836                     l3811:
  6414  001836  0E0F               	movlw	(0Fh)&0ffh
  6415  001838  6E07               	movwf	(??__tdiv_to_l_+0+0)&0ffh,c
  6416  00183A  C004  F008         	movff	(c:__tdiv_to_l_@f2),??__tdiv_to_l_+1+0
  6417  00183E  C005  F009         	movff	(c:__tdiv_to_l_@f2+1),??__tdiv_to_l_+1+0+1
  6418  001842  C006  F00A         	movff	(c:__tdiv_to_l_@f2+2),??__tdiv_to_l_+1+0+2
  6419  001846  2807               	incf	((??__tdiv_to_l_+0+0)),c,w
  6420  001848  6E0B               	movwf	(??__tdiv_to_l_+4+0)&0ffh,c
  6421  00184A  D004               	goto	u2650
  6422  00184C                     u2655:
  6423  00184C  90D8               	bcf	status,0
  6424  00184E  320A               	rrcf	(??__tdiv_to_l_+1+2),c
  6425  001850  3209               	rrcf	(??__tdiv_to_l_+1+1),c
  6426  001852  3208               	rrcf	(??__tdiv_to_l_+1+0),c
  6427  001854                     u2650:
  6428  001854  2E0B               	decfsz	(??__tdiv_to_l_+4+0)&0ffh,c
  6429  001856  D7FA               	goto	u2655
  6430  001858  5008               	movf	(??__tdiv_to_l_+1+0),c,w
  6431  00185A  6E10               	movwf	((c:__tdiv_to_l_@cntr)),c
  6432  00185C  6610               	tstfsz	((c:__tdiv_to_l_@cntr))&0ffh
  6433  00185E  D001               	goto	u2661
  6434  001860  D001               	goto	u2660
  6435  001862                     u2661:
  6436  001862  D00A               	goto	l3817
  6437  001864                     u2660:
  6438                           	line	69
  6439                           	
  6440  001864                     l3813:
  6441  001864  0E00               	movlw	low(0)
  6442  001866  6E01               	movwf	((c:?__tdiv_to_l_)),c
  6443  001868  0E00               	movlw	high(0)
  6444  00186A  6E02               	movwf	((c:?__tdiv_to_l_+1)),c
  6445  00186C  0E00               	movlw	low highword(0)
  6446  00186E  6E03               	movwf	((c:?__tdiv_to_l_+2)),c
  6447  001870  0E00               	movlw	high highword(0)
  6448  001872  6E04               	movwf	((c:?__tdiv_to_l_+3)),c
  6449  001874  D080               	goto	l618
  6450                           	
  6451  001876                     l3815:
  6452  001876  D07F               	goto	l618
  6453                           	
  6454  001878                     l619:
  6455                           	line	70
  6456                           	
  6457  001878                     l3817:
  6458  001878  8E02               	bsf	(0+(15/8)+(c:__tdiv_to_l_@f1)),c,(15)&7
  6459                           	line	71
  6460                           	
  6461  00187A                     l3819:
  6462  00187A  0EFF               	movlw	low(0FFFFh)
  6463  00187C  1601               	andwf	((c:__tdiv_to_l_@f1)),c
  6464  00187E  0EFF               	movlw	high(0FFFFh)
  6465  001880  1602               	andwf	((c:__tdiv_to_l_@f1+1)),c
  6466  001882  0E00               	movlw	low highword(0FFFFh)
  6467  001884  1603               	andwf	((c:__tdiv_to_l_@f1+2)),c
  6468                           
  6469                           	line	72
  6470  001886  8E05               	bsf	(0+(15/8)+(c:__tdiv_to_l_@f2)),c,(15)&7
  6471                           	line	73
  6472                           	
  6473  001888                     l3821:
  6474  001888  0EFF               	movlw	low(0FFFFh)
  6475  00188A  1604               	andwf	((c:__tdiv_to_l_@f2)),c
  6476  00188C  0EFF               	movlw	high(0FFFFh)
  6477  00188E  1605               	andwf	((c:__tdiv_to_l_@f2+1)),c
  6478  001890  0E00               	movlw	low highword(0FFFFh)
  6479  001892  1606               	andwf	((c:__tdiv_to_l_@f2+2)),c
  6480                           
  6481                           	line	74
  6482                           	
  6483  001894                     l3823:
  6484  001894  0E00               	movlw	low(0)
  6485  001896  6E0C               	movwf	((c:__tdiv_to_l_@quot)),c
  6486  001898  0E00               	movlw	high(0)
  6487  00189A  6E0D               	movwf	((c:__tdiv_to_l_@quot+1)),c
  6488  00189C  0E00               	movlw	low highword(0)
  6489  00189E  6E0E               	movwf	((c:__tdiv_to_l_@quot+2)),c
  6490  0018A0  0E00               	movlw	high highword(0)
  6491  0018A2  6E0F               	movwf	((c:__tdiv_to_l_@quot+3)),c
  6492                           	line	75
  6493                           	
  6494  0018A4                     l3825:
  6495  0018A4  0E7F               	movlw	(07Fh)&0ffh
  6496  0018A6  5E11               	subwf	((c:__tdiv_to_l_@exp1)),c
  6497                           	line	76
  6498                           	
  6499  0018A8                     l3827:
  6500  0018A8  5010               	movf	((c:__tdiv_to_l_@cntr)),c,w
  6501  0018AA  0F98               	addlw	low(098h)
  6502  0018AC  5E11               	subwf	((c:__tdiv_to_l_@exp1)),c
  6503                           	line	77
  6504                           	
  6505  0018AE                     l3829:
  6506  0018AE  6E07               	movwf	(??__tdiv_to_l_+0+0)&0ffh,c
  6507  0018B0  0E18               	movlw	low(018h)
  6508  0018B2  6E10               	movwf	((c:__tdiv_to_l_@cntr)),c
  6509  0018B4  5007               	movf	(??__tdiv_to_l_+0+0)&0ffh,c,w
  6510  0018B6  D000               	goto	l3831
  6511                           	line	78
  6512                           	
  6513  0018B8                     l620:
  6514                           	line	79
  6515                           	
  6516  0018B8                     l3831:
  6517  0018B8  90D8               	bcf	status,0
  6518  0018BA  360C               	rlcf	((c:__tdiv_to_l_@quot)),c
  6519  0018BC  360D               	rlcf	((c:__tdiv_to_l_@quot+1)),c
  6520  0018BE  360E               	rlcf	((c:__tdiv_to_l_@quot+2)),c
  6521  0018C0  360F               	rlcf	((c:__tdiv_to_l_@quot+3)),c
  6522                           	line	80
  6523                           	
  6524  0018C2                     l3833:
  6525  0018C2  5004               	movf	((c:__tdiv_to_l_@f2)),c,w
  6526  0018C4  5C01               	subwf	((c:__tdiv_to_l_@f1)),c,w
  6527  0018C6  5005               	movf	((c:__tdiv_to_l_@f2+1)),c,w
  6528  0018C8  5802               	subwfb	((c:__tdiv_to_l_@f1+1)),c,w
  6529  0018CA  5006               	movf	((c:__tdiv_to_l_@f2+2)),c,w
  6530  0018CC  5803               	subwfb	((c:__tdiv_to_l_@f1+2)),c,w
  6531  0018CE  A0D8               	btfss	status,0
  6532  0018D0  D001               	goto	u2671
  6533  0018D2  D001               	goto	u2670
  6534  0018D4                     u2671:
  6535  0018D4  D007               	goto	l621
  6536  0018D6                     u2670:
  6537                           	line	81
  6538                           	
  6539  0018D6                     l3835:
  6540  0018D6  5004               	movf	((c:__tdiv_to_l_@f2)),c,w
  6541  0018D8  5E01               	subwf	((c:__tdiv_to_l_@f1)),c
  6542  0018DA  5005               	movf	((c:__tdiv_to_l_@f2+1)),c,w
  6543  0018DC  5A02               	subwfb	((c:__tdiv_to_l_@f1+1)),c
  6544  0018DE  5006               	movf	((c:__tdiv_to_l_@f2+2)),c,w
  6545  0018E0  5A03               	subwfb	((c:__tdiv_to_l_@f1+2)),c
  6546                           
  6547                           	line	82
  6548                           	
  6549  0018E2                     l3837:
  6550  0018E2  800C               	bsf	(0+(0/8)+(c:__tdiv_to_l_@quot)),c,(0)&7
  6551                           	line	83
  6552                           	
  6553  0018E4                     l621:
  6554                           	line	84
  6555  0018E4  90D8               	bcf	status,0
  6556  0018E6  3601               	rlcf	((c:__tdiv_to_l_@f1)),c
  6557  0018E8  3602               	rlcf	((c:__tdiv_to_l_@f1+1)),c
  6558  0018EA  3603               	rlcf	((c:__tdiv_to_l_@f1+2)),c
  6559                           	line	85
  6560                           	
  6561  0018EC                     l3839:
  6562  0018EC  2E10               	decfsz	((c:__tdiv_to_l_@cntr)),c
  6563                           	
  6564  0018EE  D7E4               	goto	l3831
  6565                           	
  6566  0018F0                     l622:
  6567                           	line	86
  6568  0018F0  AE11               	btfss	((c:__tdiv_to_l_@exp1)),c,7
  6569  0018F2  D001               	goto	u2681
  6570  0018F4  D001               	goto	u2680
  6571  0018F6                     u2681:
  6572  0018F6  D01B               	goto	l3851
  6573  0018F8                     u2680:
  6574                           	line	87
  6575                           	
  6576  0018F8                     l3841:
  6577  0018F8  5011               	movf	((c:__tdiv_to_l_@exp1)),c,w
  6578  0018FA  0A80               	xorlw	80h
  6579  0018FC  0F97               	addlw	-((-23)^80h)
  6580  0018FE  B0D8               	btfsc	status,0
  6581  001900  D001               	goto	u2691
  6582  001902  D001               	goto	u2690
  6583  001904                     u2691:
  6584  001904  D00B               	goto	l3847
  6585  001906                     u2690:
  6586                           	line	88
  6587                           	
  6588  001906                     l3843:
  6589  001906  0E00               	movlw	low(0)
  6590  001908  6E01               	movwf	((c:?__tdiv_to_l_)),c
  6591  00190A  0E00               	movlw	high(0)
  6592  00190C  6E02               	movwf	((c:?__tdiv_to_l_+1)),c
  6593  00190E  0E00               	movlw	low highword(0)
  6594  001910  6E03               	movwf	((c:?__tdiv_to_l_+2)),c
  6595  001912  0E00               	movlw	high highword(0)
  6596  001914  6E04               	movwf	((c:?__tdiv_to_l_+3)),c
  6597  001916  D02F               	goto	l618
  6598                           	
  6599  001918                     l3845:
  6600  001918  D02E               	goto	l618
  6601                           	
  6602  00191A                     l624:
  6603  00191A  D000               	goto	l3847
  6604                           	line	89
  6605                           	
  6606  00191C                     l625:
  6607                           	line	90
  6608                           	
  6609  00191C                     l3847:
  6610  00191C  90D8               	bcf	status,0
  6611  00191E  320F               	rrcf	((c:__tdiv_to_l_@quot+3)),c
  6612  001920  320E               	rrcf	((c:__tdiv_to_l_@quot+2)),c
  6613  001922  320D               	rrcf	((c:__tdiv_to_l_@quot+1)),c
  6614  001924  320C               	rrcf	((c:__tdiv_to_l_@quot)),c
  6615                           	line	91
  6616                           	
  6617  001926                     l3849:
  6618  001926  3E11               	incfsz	((c:__tdiv_to_l_@exp1)),c
  6619                           	
  6620  001928  D7F9               	goto	l3847
  6621  00192A  D01D               	goto	l627
  6622                           	
  6623  00192C                     l626:
  6624                           	line	92
  6625  00192C  D01C               	goto	l627
  6626                           	
  6627  00192E                     l623:
  6628                           	line	93
  6629                           	
  6630  00192E                     l3851:
  6631  00192E  0E17               	movlw	(018h-1)
  6632  001930  6411               	cpfsgt	((c:__tdiv_to_l_@exp1)),c
  6633  001932  D001               	goto	u2701
  6634  001934  D001               	goto	u2700
  6635  001936                     u2701:
  6636  001936  D012               	goto	l3859
  6637  001938                     u2700:
  6638                           	line	94
  6639                           	
  6640  001938                     l3853:
  6641  001938  0E00               	movlw	low(0)
  6642  00193A  6E01               	movwf	((c:?__tdiv_to_l_)),c
  6643  00193C  0E00               	movlw	high(0)
  6644  00193E  6E02               	movwf	((c:?__tdiv_to_l_+1)),c
  6645  001940  0E00               	movlw	low highword(0)
  6646  001942  6E03               	movwf	((c:?__tdiv_to_l_+2)),c
  6647  001944  0E00               	movlw	high highword(0)
  6648  001946  6E04               	movwf	((c:?__tdiv_to_l_+3)),c
  6649  001948  D016               	goto	l618
  6650                           	
  6651  00194A                     l3855:
  6652  00194A  D015               	goto	l618
  6653                           	
  6654  00194C                     l628:
  6655                           	line	95
  6656  00194C  D007               	goto	l3859
  6657                           	
  6658  00194E                     l630:
  6659                           	line	96
  6660                           	
  6661  00194E                     l3857:
  6662  00194E  90D8               	bcf	status,0
  6663  001950  360C               	rlcf	((c:__tdiv_to_l_@quot)),c
  6664  001952  360D               	rlcf	((c:__tdiv_to_l_@quot+1)),c
  6665  001954  360E               	rlcf	((c:__tdiv_to_l_@quot+2)),c
  6666  001956  360F               	rlcf	((c:__tdiv_to_l_@quot+3)),c
  6667                           	line	97
  6668  001958  0611               	decf	((c:__tdiv_to_l_@exp1)),c
  6669  00195A  D000               	goto	l3859
  6670                           	line	98
  6671                           	
  6672  00195C                     l629:
  6673                           	line	95
  6674                           	
  6675  00195C                     l3859:
  6676  00195C  6611               	tstfsz	((c:__tdiv_to_l_@exp1)),c
  6677  00195E  D001               	goto	u2711
  6678  001960  D001               	goto	u2710
  6679  001962                     u2711:
  6680  001962  D7F5               	goto	l3857
  6681  001964                     u2710:
  6682  001964  D000               	goto	l627
  6683                           	
  6684  001966                     l631:
  6685                           	line	99
  6686                           	
  6687  001966                     l627:
  6688                           	line	100
  6689  001966  C00C  F001         	movff	(c:__tdiv_to_l_@quot),(c:?__tdiv_to_l_)
  6690  00196A  C00D  F002         	movff	(c:__tdiv_to_l_@quot+1),(c:?__tdiv_to_l_+1)
  6691  00196E  C00E  F003         	movff	(c:__tdiv_to_l_@quot+2),(c:?__tdiv_to_l_+2)
  6692  001972  C00F  F004         	movff	(c:__tdiv_to_l_@quot+3),(c:?__tdiv_to_l_+3)
  6693                           	line	101
  6694                           	
  6695  001976                     l618:
  6696  001976  0012               	return
  6697  001978  FFFF               	dw	0FFFFh; errata NOP
  6698                           	opt stack 0
  6699                           GLOBAL	__end_of__tdiv_to_l_
  6700  00197A                     	__end_of__tdiv_to_l_:
  6701                           	signat	__tdiv_to_l_,8316
  6702                           	global	__div_to_l_
  6703                           
  6704 ;; *************** function __div_to_l_ *****************
  6705 ;; Defined at:
  6706 ;;		line 61 in file "C:\Program Files\HI-TECH Software\PICC-18\9.80\sources\fldivl.c"
  6707 ;; Parameters:    Size  Location     Type
  6708 ;;  f1              3    0[COMRAM] unsigned long 
  6709 ;;  f2              3    3[COMRAM] unsigned long 
  6710 ;; Auto vars:     Size  Location     Type
  6711 ;;  quot            4    7[COMRAM] unsigned long 
  6712 ;;  exp1            1   12[COMRAM] unsigned char 
  6713 ;;  cntr            1   11[COMRAM] unsigned char 
  6714 ;; Return value:  Size  Location     Type
  6715 ;;                  4    0[COMRAM] unsigned long 
  6716 ;; Registers used:
  6717 ;;		wreg, status,2, status,0
  6718 ;; Tracked objects:
  6719 ;;		On entry : 0/0
  6720 ;;		On exit  : 0/0
  6721 ;;		Unchanged: 0/0
  6722 ;; Data sizes:     COMRAM   BANK0   BANK1   BANK2   BANK3   BANK4   BANK5
  6723 ;;      Params:         6       0       0       0       0       0       0
  6724 ;;      Locals:         6       0       0       0       0       0       0
  6725 ;;      Temps:          1       0       0       0       0       0       0
  6726 ;;      Totals:        13       0       0       0       0       0       0
  6727 ;;Total ram usage:       13 bytes
  6728 ;; Hardware stack levels used:    1
  6729 ;; This function calls:
  6730 ;;		Nothing
  6731 ;; This function is called by:
  6732 ;;		_sprintf
  6733 ;; This function uses a non-reentrant model
  6734 ;;
  6735                           psect	text17,class=CODE,space=0,reloc=2
  6736                           global __ptext17
  6737  00197A                     __ptext17:
  6738                           psect	text17
  6739                           	file	"C:\Program Files\HI-TECH Software\PICC-18\9.80\sources\fldivl.c"
  6740                           	line	61
  6741                           	global	__size_of__div_to_l_
  6742  0000                     	__size_of__div_to_l_	equ	__end_of__div_to_l_-__div_to_l_
  6743                           	
  6744  00197A                     __div_to_l_:
  6745                           	opt	stack 28
  6746  00197A  FFFF               	dw	0FFFFh
  6747                           	line	66
  6748                           	
  6749  00197C                     l3861:
  6750  00197C  3403               	rlcf	(2+((c:__div_to_l_@f1)))&0ffh,w
  6751  00197E  3404               	rlcf	(3+((c:__div_to_l_@f1)))&0ffh,w
  6752  001980  6E0D               	movwf	((c:__div_to_l_@exp1)),c
  6753  001982  660D               	tstfsz	((c:__div_to_l_@exp1))&0ffh
  6754  001984  D001               	goto	u2721
  6755  001986  D001               	goto	u2720
  6756  001988                     u2721:
  6757  001988  D00A               	goto	l3867
  6758  00198A                     u2720:
  6759                           	line	67
  6760                           	
  6761  00198A                     l3863:
  6762  00198A  0E00               	movlw	low(0)
  6763  00198C  6E01               	movwf	((c:?__div_to_l_)),c
  6764  00198E  0E00               	movlw	high(0)
  6765  001990  6E02               	movwf	((c:?__div_to_l_+1)),c
  6766  001992  0E00               	movlw	low highword(0)
  6767  001994  6E03               	movwf	((c:?__div_to_l_+2)),c
  6768  001996  0E00               	movlw	high highword(0)
  6769  001998  6E04               	movwf	((c:?__div_to_l_+3)),c
  6770  00199A  D09A               	goto	l500
  6771                           	
  6772  00199C                     l3865:
  6773  00199C  D099               	goto	l500
  6774                           	
  6775  00199E                     l499:
  6776                           	line	68
  6777                           	
  6778  00199E                     l3867:
  6779  00199E  3406               	rlcf	(2+((c:__div_to_l_@f2)))&0ffh,w
  6780  0019A0  3407               	rlcf	(3+((c:__div_to_l_@f2)))&0ffh,w
  6781  0019A2  6E0C               	movwf	((c:__div_to_l_@cntr)),c
  6782  0019A4  660C               	tstfsz	((c:__div_to_l_@cntr))&0ffh
  6783  0019A6  D001               	goto	u2731
  6784  0019A8  D001               	goto	u2730
  6785  0019AA                     u2731:
  6786  0019AA  D00A               	goto	l3873
  6787  0019AC                     u2730:
  6788                           	line	69
  6789                           	
  6790  0019AC                     l3869:
  6791  0019AC  0E00               	movlw	low(0)
  6792  0019AE  6E01               	movwf	((c:?__div_to_l_)),c
  6793  0019B0  0E00               	movlw	high(0)
  6794  0019B2  6E02               	movwf	((c:?__div_to_l_+1)),c
  6795  0019B4  0E00               	movlw	low highword(0)
  6796  0019B6  6E03               	movwf	((c:?__div_to_l_+2)),c
  6797  0019B8  0E00               	movlw	high highword(0)
  6798  0019BA  6E04               	movwf	((c:?__div_to_l_+3)),c
  6799  0019BC  D089               	goto	l500
  6800                           	
  6801  0019BE                     l3871:
  6802  0019BE  D088               	goto	l500
  6803                           	
  6804  0019C0                     l501:
  6805                           	line	70
  6806                           	
  6807  0019C0                     l3873:
  6808  0019C0  8E03               	bsf	(0+(23/8)+0+((c:__div_to_l_@f1))),c,(23)&7
  6809                           	line	71
  6810                           	
  6811  0019C2                     l3875:
  6812  0019C2  0EFF               	movlw	0FFh
  6813  0019C4  1601               	andwf	(0+((c:__div_to_l_@f1))),c
  6814  0019C6  0EFF               	movlw	0FFh
  6815  0019C8  1602               	andwf	(1+((c:__div_to_l_@f1))),c
  6816  0019CA  0EFF               	movlw	0FFh
  6817  0019CC  1603               	andwf	(2+((c:__div_to_l_@f1))),c
  6818  0019CE  0E00               	movlw	0
  6819  0019D0  1604               	andwf	(3+((c:__div_to_l_@f1))),c
  6820                           	line	72
  6821                           	
  6822  0019D2                     l3877:
  6823  0019D2  8E06               	bsf	(0+(23/8)+0+((c:__div_to_l_@f2))),c,(23)&7
  6824                           	line	73
  6825  0019D4  0EFF               	movlw	0FFh
  6826  0019D6  1604               	andwf	(0+((c:__div_to_l_@f2))),c
  6827  0019D8  0EFF               	movlw	0FFh
  6828  0019DA  1605               	andwf	(1+((c:__div_to_l_@f2))),c
  6829  0019DC  0EFF               	movlw	0FFh
  6830  0019DE  1606               	andwf	(2+((c:__div_to_l_@f2))),c
  6831  0019E0  0E00               	movlw	0
  6832  0019E2  1607               	andwf	(3+((c:__div_to_l_@f2))),c
  6833                           	line	74
  6834                           	
  6835  0019E4                     l3879:
  6836  0019E4  0E00               	movlw	low(0)
  6837  0019E6  6E08               	movwf	((c:__div_to_l_@quot)),c
  6838  0019E8  0E00               	movlw	high(0)
  6839  0019EA  6E09               	movwf	((c:__div_to_l_@quot+1)),c
  6840  0019EC  0E00               	movlw	low highword(0)
  6841  0019EE  6E0A               	movwf	((c:__div_to_l_@quot+2)),c
  6842  0019F0  0E00               	movlw	high highword(0)
  6843  0019F2  6E0B               	movwf	((c:__div_to_l_@quot+3)),c
  6844                           	line	75
  6845                           	
  6846  0019F4                     l3881:
  6847  0019F4  0E7F               	movlw	(07Fh)&0ffh
  6848  0019F6  5E0D               	subwf	((c:__div_to_l_@exp1)),c
  6849                           	line	76
  6850                           	
  6851  0019F8                     l3883:
  6852  0019F8  500C               	movf	((c:__div_to_l_@cntr)),c,w
  6853  0019FA  0FA0               	addlw	low(0A0h)
  6854  0019FC  5E0D               	subwf	((c:__div_to_l_@exp1)),c
  6855                           	line	77
  6856                           	
  6857  0019FE                     l3885:
  6858  0019FE  6E07               	movwf	(??__div_to_l_+0+0)&0ffh,c
  6859  001A00  0E20               	movlw	low(020h)
  6860  001A02  6E0C               	movwf	((c:__div_to_l_@cntr)),c
  6861  001A04  5007               	movf	(??__div_to_l_+0+0)&0ffh,c,w
  6862                           	line	78
  6863                           	
  6864  001A06                     l502:
  6865                           	line	79
  6866  001A06  90D8               	bcf	status,0
  6867  001A08  3608               	rlcf	((c:__div_to_l_@quot)),c
  6868  001A0A  3609               	rlcf	((c:__div_to_l_@quot+1)),c
  6869  001A0C  360A               	rlcf	((c:__div_to_l_@quot+2)),c
  6870  001A0E  360B               	rlcf	((c:__div_to_l_@quot+3)),c
  6871                           	line	80
  6872                           	
  6873  001A10                     l3887:
  6874  001A10  5004               	movf	(0+((c:__div_to_l_@f2))),c,w
  6875  001A12  5C01               	subwf	(0+((c:__div_to_l_@f1))),c,w
  6876  001A14  5005               	movf	(1+((c:__div_to_l_@f2))),c,w
  6877  001A16  5802               	subwfb	(1+((c:__div_to_l_@f1))),c,w
  6878  001A18  5006               	movf	(2+((c:__div_to_l_@f2))),c,w
  6879  001A1A  5803               	subwfb	(2+((c:__div_to_l_@f1))),c,w
  6880  001A1C  5007               	movf	(3+((c:__div_to_l_@f2))),c,w
  6881  001A1E  5804               	subwfb	(3+((c:__div_to_l_@f1))),c,w
  6882  001A20  A0D8               	btfss	status,0
  6883  001A22  D001               	goto	u2741
  6884  001A24  D001               	goto	u2740
  6885  001A26                     u2741:
  6886  001A26  D00A               	goto	l3893
  6887  001A28                     u2740:
  6888                           	line	81
  6889                           	
  6890  001A28                     l3889:
  6891  001A28  5004               	movf	(0+((c:__div_to_l_@f2))),c,w
  6892  001A2A  5E01               	subwf	(0+((c:__div_to_l_@f1))),c
  6893  001A2C  5005               	movf	(1+((c:__div_to_l_@f2))),c,w
  6894  001A2E  5A02               	subwfb	(1+((c:__div_to_l_@f1))),c
  6895  001A30  5006               	movf	(2+((c:__div_to_l_@f2))),c,w
  6896  001A32  5A03               	subwfb	(2+((c:__div_to_l_@f1))),c
  6897  001A34  5007               	movf	(3+((c:__div_to_l_@f2))),c,w
  6898  001A36  5A04               	subwfb	(3+((c:__div_to_l_@f1))),c
  6899                           	line	82
  6900                           	
  6901  001A38                     l3891:
  6902  001A38  8008               	bsf	(0+(0/8)+(c:__div_to_l_@quot)),c,(0)&7
  6903  001A3A  D000               	goto	l3893
  6904                           	line	83
  6905                           	
  6906  001A3C                     l503:
  6907                           	line	84
  6908                           	
  6909  001A3C                     l3893:
  6910  001A3C  90D8               	bcf	status,0
  6911  001A3E  3601               	rlcf	(0+((c:__div_to_l_@f1))),c
  6912  001A40  3602               	rlcf	(1+((c:__div_to_l_@f1))),c
  6913  001A42  3603               	rlcf	(2+((c:__div_to_l_@f1))),c
  6914  001A44  3604               	rlcf	(3+((c:__div_to_l_@f1))),c
  6915                           	line	85
  6916                           	
  6917  001A46                     l3895:
  6918  001A46  2E0C               	decfsz	((c:__div_to_l_@cntr)),c
  6919                           	
  6920  001A48  D7DE               	goto	l502
  6921                           	
  6922  001A4A                     l504:
  6923                           	line	86
  6924  001A4A  AE0D               	btfss	((c:__div_to_l_@exp1)),c,7
  6925  001A4C  D001               	goto	u2751
  6926  001A4E  D001               	goto	u2750
  6927  001A50                     u2751:
  6928  001A50  D01B               	goto	l3907
  6929  001A52                     u2750:
  6930                           	line	87
  6931                           	
  6932  001A52                     l3897:
  6933  001A52  500D               	movf	((c:__div_to_l_@exp1)),c,w
  6934  001A54  0A80               	xorlw	80h
  6935  001A56  0F9F               	addlw	-((-31)^80h)
  6936  001A58  B0D8               	btfsc	status,0
  6937  001A5A  D001               	goto	u2761
  6938  001A5C  D001               	goto	u2760
  6939  001A5E                     u2761:
  6940  001A5E  D00B               	goto	l3903
  6941  001A60                     u2760:
  6942                           	line	88
  6943                           	
  6944  001A60                     l3899:
  6945  001A60  0E00               	movlw	low(0)
  6946  001A62  6E01               	movwf	((c:?__div_to_l_)),c
  6947  001A64  0E00               	movlw	high(0)
  6948  001A66  6E02               	movwf	((c:?__div_to_l_+1)),c
  6949  001A68  0E00               	movlw	low highword(0)
  6950  001A6A  6E03               	movwf	((c:?__div_to_l_+2)),c
  6951  001A6C  0E00               	movlw	high highword(0)
  6952  001A6E  6E04               	movwf	((c:?__div_to_l_+3)),c
  6953  001A70  D02F               	goto	l500
  6954                           	
  6955  001A72                     l3901:
  6956  001A72  D02E               	goto	l500
  6957                           	
  6958  001A74                     l506:
  6959  001A74  D000               	goto	l3903
  6960                           	line	89
  6961                           	
  6962  001A76                     l507:
  6963                           	line	90
  6964                           	
  6965  001A76                     l3903:
  6966  001A76  90D8               	bcf	status,0
  6967  001A78  320B               	rrcf	((c:__div_to_l_@quot+3)),c
  6968  001A7A  320A               	rrcf	((c:__div_to_l_@quot+2)),c
  6969  001A7C  3209               	rrcf	((c:__div_to_l_@quot+1)),c
  6970  001A7E  3208               	rrcf	((c:__div_to_l_@quot)),c
  6971                           	line	91
  6972                           	
  6973  001A80                     l3905:
  6974  001A80  3E0D               	incfsz	((c:__div_to_l_@exp1)),c
  6975                           	
  6976  001A82  D7F9               	goto	l3903
  6977  001A84  D01D               	goto	l509
  6978                           	
  6979  001A86                     l508:
  6980                           	line	92
  6981  001A86  D01C               	goto	l509
  6982                           	
  6983  001A88                     l505:
  6984                           	line	93
  6985                           	
  6986  001A88                     l3907:
  6987  001A88  0E1F               	movlw	(020h-1)
  6988  001A8A  640D               	cpfsgt	((c:__div_to_l_@exp1)),c
  6989  001A8C  D001               	goto	u2771
  6990  001A8E  D001               	goto	u2770
  6991  001A90                     u2771:
  6992  001A90  D012               	goto	l3915
  6993  001A92                     u2770:
  6994                           	line	94
  6995                           	
  6996  001A92                     l3909:
  6997  001A92  0E00               	movlw	low(0)
  6998  001A94  6E01               	movwf	((c:?__div_to_l_)),c
  6999  001A96  0E00               	movlw	high(0)
  7000  001A98  6E02               	movwf	((c:?__div_to_l_+1)),c
  7001  001A9A  0E00               	movlw	low highword(0)
  7002  001A9C  6E03               	movwf	((c:?__div_to_l_+2)),c
  7003  001A9E  0E00               	movlw	high highword(0)
  7004  001AA0  6E04               	movwf	((c:?__div_to_l_+3)),c
  7005  001AA2  D016               	goto	l500
  7006                           	
  7007  001AA4                     l3911:
  7008  001AA4  D015               	goto	l500
  7009                           	
  7010  001AA6                     l510:
  7011                           	line	95
  7012  001AA6  D007               	goto	l3915
  7013                           	
  7014  001AA8                     l512:
  7015                           	line	96
  7016                           	
  7017  001AA8                     l3913:
  7018  001AA8  90D8               	bcf	status,0
  7019  001AAA  3608               	rlcf	((c:__div_to_l_@quot)),c
  7020  001AAC  3609               	rlcf	((c:__div_to_l_@quot+1)),c
  7021  001AAE  360A               	rlcf	((c:__div_to_l_@quot+2)),c
  7022  001AB0  360B               	rlcf	((c:__div_to_l_@quot+3)),c
  7023                           	line	97
  7024  001AB2  060D               	decf	((c:__div_to_l_@exp1)),c
  7025  001AB4  D000               	goto	l3915
  7026                           	line	98
  7027                           	
  7028  001AB6                     l511:
  7029                           	line	95
  7030                           	
  7031  001AB6                     l3915:
  7032  001AB6  660D               	tstfsz	((c:__div_to_l_@exp1)),c
  7033  001AB8  D001               	goto	u2781
  7034  001ABA  D001               	goto	u2780
  7035  001ABC                     u2781:
  7036  001ABC  D7F5               	goto	l3913
  7037  001ABE                     u2780:
  7038  001ABE  D000               	goto	l509
  7039                           	
  7040  001AC0                     l513:
  7041                           	line	99
  7042                           	
  7043  001AC0                     l509:
  7044                           	line	100
  7045  001AC0  C008  F001         	movff	(c:__div_to_l_@quot),(c:?__div_to_l_)
  7046  001AC4  C009  F002         	movff	(c:__div_to_l_@quot+1),(c:?__div_to_l_+1)
  7047  001AC8  C00A  F003         	movff	(c:__div_to_l_@quot+2),(c:?__div_to_l_+2)
  7048  001ACC  C00B  F004         	movff	(c:__div_to_l_@quot+3),(c:?__div_to_l_+3)
  7049                           	line	101
  7050                           	
  7051  001AD0                     l500:
  7052  001AD0  0012               	return
  7053  001AD2  FFFF               	dw	0FFFFh; errata NOP
  7054                           	opt stack 0
  7055                           GLOBAL	__end_of__div_to_l_
  7056  001AD4                     	__end_of__div_to_l_:
  7057                           	signat	__div_to_l_,8316
  7058                           	global	___awdiv
  7059                           
  7060 ;; *************** function ___awdiv *****************
  7061 ;; Defined at:
  7062 ;;		line 10 in file "C:\Program Files\HI-TECH Software\PICC-18\9.80\sources\awdiv.c"
  7063 ;; Parameters:    Size  Location     Type
  7064 ;;  dividend        2    7[COMRAM] int 
  7065 ;;  divisor         2    9[COMRAM] int 
  7066 ;; Auto vars:     Size  Location     Type
  7067 ;;  quotient        2   14[COMRAM] int 
  7068 ;;  sign            1   13[COMRAM] unsigned char 
  7069 ;;  counter         1   12[COMRAM] unsigned char 
  7070 ;; Return value:  Size  Location     Type
  7071 ;;                  2    7[COMRAM] int 
  7072 ;; Registers used:
  7073 ;;		wreg, status,2, status,0
  7074 ;; Tracked objects:
  7075 ;;		On entry : 0/0
  7076 ;;		On exit  : 0/0
  7077 ;;		Unchanged: 0/0
  7078 ;; Data sizes:     COMRAM   BANK0   BANK1   BANK2   BANK3   BANK4   BANK5
  7079 ;;      Params:         4       0       0       0       0       0       0
  7080 ;;      Locals:         4       0       0       0       0       0       0
  7081 ;;      Temps:          1       0       0       0       0       0       0
  7082 ;;      Totals:         9       0       0       0       0       0       0
  7083 ;;Total ram usage:        9 bytes
  7084 ;; Hardware stack levels used:    1
  7085 ;; This function calls:
  7086 ;;		Nothing
  7087 ;; This function is called by:
  7088 ;;		_fround
  7089 ;;		_scale
  7090 ;;		_sprintf
  7091 ;; This function uses a non-reentrant model
  7092 ;;
  7093                           psect	text18,class=CODE,space=0,reloc=2
  7094                           global __ptext18
  7095  00212C                     __ptext18:
  7096                           psect	text18
  7097                           	file	"C:\Program Files\HI-TECH Software\PICC-18\9.80\sources\awdiv.c"
  7098                           	line	10
  7099                           	global	__size_of___awdiv
  7100  0000                     	__size_of___awdiv	equ	__end_of___awdiv-___awdiv
  7101                           	
  7102  00212C                     ___awdiv:
  7103                           	opt	stack 27
  7104  00212C  FFFF               	dw	0FFFFh
  7105                           	line	14
  7106                           	
  7107  00212E                     l4209:
  7108  00212E  6E0C               	movwf	(??___awdiv+0+0)&0ffh,c
  7109  002130  0E00               	movlw	low(0)
  7110  002132  6E0E               	movwf	((c:___awdiv@sign)),c
  7111  002134  500C               	movf	(??___awdiv+0+0)&0ffh,c,w
  7112                           	line	15
  7113                           	
  7114  002136                     l4211:
  7115  002136  AE0B               	btfss	((c:___awdiv@divisor+1)),c,7
  7116  002138  D001               	goto	u3141
  7117  00213A  D001               	goto	u3140
  7118  00213C                     u3141:
  7119  00213C  D009               	goto	l4217
  7120  00213E                     u3140:
  7121                           	line	16
  7122                           	
  7123  00213E                     l4213:
  7124  00213E  6C0A               	negf	((c:___awdiv@divisor)),c
  7125  002140  1E0B               	comf	((c:___awdiv@divisor+1)),c
  7126  002142  B0D8               	btfsc	status,0
  7127  002144  2A0B               	incf	((c:___awdiv@divisor+1)),c
  7128                           	line	17
  7129                           	
  7130  002146                     l4215:
  7131  002146  6E0C               	movwf	(??___awdiv+0+0)&0ffh,c
  7132  002148  0E01               	movlw	low(01h)
  7133  00214A  6E0E               	movwf	((c:___awdiv@sign)),c
  7134  00214C  500C               	movf	(??___awdiv+0+0)&0ffh,c,w
  7135  00214E  D000               	goto	l4217
  7136                           	line	18
  7137                           	
  7138  002150                     l395:
  7139                           	line	19
  7140                           	
  7141  002150                     l4217:
  7142  002150  AE09               	btfss	((c:___awdiv@dividend+1)),c,7
  7143  002152  D001               	goto	u3151
  7144  002154  D001               	goto	u3150
  7145  002156                     u3151:
  7146  002156  D007               	goto	l4223
  7147  002158                     u3150:
  7148                           	line	20
  7149                           	
  7150  002158                     l4219:
  7151  002158  6C08               	negf	((c:___awdiv@dividend)),c
  7152  00215A  1E09               	comf	((c:___awdiv@dividend+1)),c
  7153  00215C  B0D8               	btfsc	status,0
  7154  00215E  2A09               	incf	((c:___awdiv@dividend+1)),c
  7155                           	line	21
  7156                           	
  7157  002160                     l4221:
  7158  002160  0E01               	movlw	(01h)&0ffh
  7159  002162  1A0E               	xorwf	((c:___awdiv@sign)),c
  7160  002164  D000               	goto	l4223
  7161                           	line	22
  7162                           	
  7163  002166                     l396:
  7164                           	line	23
  7165                           	
  7166  002166                     l4223:
  7167  002166  0E00               	movlw	high(0)
  7168  002168  6E10               	movwf	((c:___awdiv@quotient+1)),c
  7169  00216A  0E00               	movlw	low(0)
  7170  00216C  6E0F               	movwf	((c:___awdiv@quotient)),c
  7171                           	line	24
  7172                           	
  7173  00216E                     l4225:
  7174  00216E  500B               	movf	((c:___awdiv@divisor+1)),c,w
  7175  002170  100A               	iorwf ((c:___awdiv@divisor)),c,w
  7176                           
  7177  002172  B4D8               	btfsc	status,2
  7178  002174  D001               	goto	u3161
  7179  002176  D001               	goto	u3160
  7180  002178                     u3161:
  7181  002178  D028               	goto	l4245
  7182  00217A                     u3160:
  7183                           	line	25
  7184                           	
  7185  00217A                     l4227:
  7186  00217A  6E0C               	movwf	(??___awdiv+0+0)&0ffh,c
  7187  00217C  0E01               	movlw	low(01h)
  7188  00217E  6E0D               	movwf	((c:___awdiv@counter)),c
  7189  002180  500C               	movf	(??___awdiv+0+0)&0ffh,c,w
  7190                           	line	26
  7191  002182  D005               	goto	l4231
  7192                           	
  7193  002184                     l399:
  7194                           	line	27
  7195                           	
  7196  002184                     l4229:
  7197  002184  90D8               	bcf	status,0
  7198  002186  360A               	rlcf	((c:___awdiv@divisor)),c
  7199  002188  360B               	rlcf	((c:___awdiv@divisor+1)),c
  7200                           	line	28
  7201  00218A  2A0D               	incf	((c:___awdiv@counter)),c
  7202  00218C  D000               	goto	l4231
  7203                           	line	29
  7204                           	
  7205  00218E                     l398:
  7206                           	line	26
  7207                           	
  7208  00218E                     l4231:
  7209                           	
  7210  00218E  AE0B               	btfss	((c:___awdiv@divisor+1)),c,(15)&7
  7211  002190  D001               	goto	u3171
  7212  002192  D001               	goto	u3170
  7213  002194                     u3171:
  7214  002194  D7F7               	goto	l4229
  7215  002196                     u3170:
  7216  002196  D001               	goto	l4233
  7217                           	
  7218  002198                     l400:
  7219  002198  D000               	goto	l4233
  7220                           	line	30
  7221                           	
  7222  00219A                     l401:
  7223                           	line	31
  7224                           	
  7225  00219A                     l4233:
  7226  00219A  90D8               	bcf	status,0
  7227  00219C  360F               	rlcf	((c:___awdiv@quotient)),c
  7228  00219E  3610               	rlcf	((c:___awdiv@quotient+1)),c
  7229                           	line	32
  7230                           	
  7231  0021A0                     l4235:
  7232  0021A0  500A               	movf	((c:___awdiv@divisor)),c,w
  7233  0021A2  5C08               	subwf	((c:___awdiv@dividend)),c,w
  7234  0021A4  500B               	movf	((c:___awdiv@divisor+1)),c,w
  7235  0021A6  5809               	subwfb	((c:___awdiv@dividend+1)),c,w
  7236  0021A8  A0D8               	btfss	status,0
  7237  0021AA  D001               	goto	u3181
  7238  0021AC  D001               	goto	u3180
  7239  0021AE                     u3181:
  7240  0021AE  D006               	goto	l4241
  7241  0021B0                     u3180:
  7242                           	line	33
  7243                           	
  7244  0021B0                     l4237:
  7245  0021B0  500A               	movf	((c:___awdiv@divisor)),c,w
  7246  0021B2  5E08               	subwf	((c:___awdiv@dividend)),c
  7247  0021B4  500B               	movf	((c:___awdiv@divisor+1)),c,w
  7248  0021B6  5A09               	subwfb	((c:___awdiv@dividend+1)),c
  7249                           
  7250                           	line	34
  7251                           	
  7252  0021B8                     l4239:
  7253  0021B8  800F               	bsf	(0+(0/8)+(c:___awdiv@quotient)),c,(0)&7
  7254  0021BA  D000               	goto	l4241
  7255                           	line	35
  7256                           	
  7257  0021BC                     l402:
  7258                           	line	36
  7259                           	
  7260  0021BC                     l4241:
  7261  0021BC  90D8               	bcf	status,0
  7262  0021BE  320B               	rrcf	((c:___awdiv@divisor+1)),c
  7263  0021C0  320A               	rrcf	((c:___awdiv@divisor)),c
  7264                           	line	37
  7265                           	
  7266  0021C2                     l4243:
  7267  0021C2  2E0D               	decfsz	((c:___awdiv@counter)),c
  7268                           	
  7269  0021C4  D7EA               	goto	l4233
  7270  0021C6  D001               	goto	l4245
  7271                           	
  7272  0021C8                     l403:
  7273  0021C8  D000               	goto	l4245
  7274                           	line	38
  7275                           	
  7276  0021CA                     l397:
  7277                           	line	39
  7278                           	
  7279  0021CA                     l4245:
  7280  0021CA  500E               	movf	((c:___awdiv@sign)),c,w
  7281  0021CC  B4D8               	btfsc	status,2
  7282  0021CE  D001               	goto	u3191
  7283  0021D0  D001               	goto	u3190
  7284  0021D2                     u3191:
  7285  0021D2  D005               	goto	l4249
  7286  0021D4                     u3190:
  7287                           	line	40
  7288                           	
  7289  0021D4                     l4247:
  7290  0021D4  6C0F               	negf	((c:___awdiv@quotient)),c
  7291  0021D6  1E10               	comf	((c:___awdiv@quotient+1)),c
  7292  0021D8  B0D8               	btfsc	status,0
  7293  0021DA  2A10               	incf	((c:___awdiv@quotient+1)),c
  7294  0021DC  D000               	goto	l4249
  7295                           	
  7296  0021DE                     l404:
  7297                           	line	41
  7298                           	
  7299  0021DE                     l4249:
  7300  0021DE  C00F  F008         	movff	(c:___awdiv@quotient),(c:?___awdiv)
  7301  0021E2  C010  F009         	movff	(c:___awdiv@quotient+1),(c:?___awdiv+1)
  7302  0021E6  D000               	goto	l405
  7303                           	
  7304  0021E8                     l4251:
  7305                           	line	42
  7306                           	
  7307  0021E8                     l405:
  7308  0021E8  0012               	return
  7309  0021EA  FFFF               	dw	0FFFFh; errata NOP
  7310                           	opt stack 0
  7311                           GLOBAL	__end_of___awdiv
  7312  0021EC                     	__end_of___awdiv:
  7313                           	signat	___awdiv,8314
  7314                           	global	___awmod
  7315                           
  7316 ;; *************** function ___awmod *****************
  7317 ;; Defined at:
  7318 ;;		line 10 in file "C:\Program Files\HI-TECH Software\PICC-18\9.80\sources\awmod.c"
  7319 ;; Parameters:    Size  Location     Type
  7320 ;;  dividend        2    0[COMRAM] int 
  7321 ;;  divisor         2    2[COMRAM] int 
  7322 ;; Auto vars:     Size  Location     Type
  7323 ;;  sign            1    6[COMRAM] unsigned char 
  7324 ;;  counter         1    5[COMRAM] unsigned char 
  7325 ;; Return value:  Size  Location     Type
  7326 ;;                  2    0[COMRAM] int 
  7327 ;; Registers used:
  7328 ;;		wreg, status,2, status,0
  7329 ;; Tracked objects:
  7330 ;;		On entry : 0/0
  7331 ;;		On exit  : 0/0
  7332 ;;		Unchanged: 0/0
  7333 ;; Data sizes:     COMRAM   BANK0   BANK1   BANK2   BANK3   BANK4   BANK5
  7334 ;;      Params:         4       0       0       0       0       0       0
  7335 ;;      Locals:         2       0       0       0       0       0       0
  7336 ;;      Temps:          1       0       0       0       0       0       0
  7337 ;;      Totals:         7       0       0       0       0       0       0
  7338 ;;Total ram usage:        7 bytes
  7339 ;; Hardware stack levels used:    1
  7340 ;; This function calls:
  7341 ;;		Nothing
  7342 ;; This function is called by:
  7343 ;;		_fround
  7344 ;;		_scale
  7345 ;; This function uses a non-reentrant model
  7346 ;;
  7347                           psect	text19,class=CODE,space=0,reloc=2
  7348                           global __ptext19
  7349  0021EC                     __ptext19:
  7350                           psect	text19
  7351                           	file	"C:\Program Files\HI-TECH Software\PICC-18\9.80\sources\awmod.c"
  7352                           	line	10
  7353                           	global	__size_of___awmod
  7354  0000                     	__size_of___awmod	equ	__end_of___awmod-___awmod
  7355                           	
  7356  0021EC                     ___awmod:
  7357                           	opt	stack 27
  7358  0021EC  FFFF               	dw	0FFFFh
  7359                           	line	13
  7360                           	
  7361  0021EE                     l3991:
  7362  0021EE  6E05               	movwf	(??___awmod+0+0)&0ffh,c
  7363  0021F0  0E00               	movlw	low(0)
  7364  0021F2  6E07               	movwf	((c:___awmod@sign)),c
  7365  0021F4  5005               	movf	(??___awmod+0+0)&0ffh,c,w
  7366                           	line	14
  7367                           	
  7368  0021F6                     l3993:
  7369  0021F6  AE02               	btfss	((c:___awmod@dividend+1)),c,7
  7370  0021F8  D001               	goto	u2901
  7371  0021FA  D001               	goto	u2900
  7372  0021FC                     u2901:
  7373  0021FC  D009               	goto	l3999
  7374  0021FE                     u2900:
  7375                           	line	15
  7376                           	
  7377  0021FE                     l3995:
  7378  0021FE  6C01               	negf	((c:___awmod@dividend)),c
  7379  002200  1E02               	comf	((c:___awmod@dividend+1)),c
  7380  002202  B0D8               	btfsc	status,0
  7381  002204  2A02               	incf	((c:___awmod@dividend+1)),c
  7382                           	line	16
  7383                           	
  7384  002206                     l3997:
  7385  002206  6E05               	movwf	(??___awmod+0+0)&0ffh,c
  7386  002208  0E01               	movlw	low(01h)
  7387  00220A  6E07               	movwf	((c:___awmod@sign)),c
  7388  00220C  5005               	movf	(??___awmod+0+0)&0ffh,c,w
  7389  00220E  D000               	goto	l3999
  7390                           	line	17
  7391                           	
  7392  002210                     l408:
  7393                           	line	18
  7394                           	
  7395  002210                     l3999:
  7396  002210  AE04               	btfss	((c:___awmod@divisor+1)),c,7
  7397  002212  D001               	goto	u2911
  7398  002214  D001               	goto	u2910
  7399  002216                     u2911:
  7400  002216  D005               	goto	l4003
  7401  002218                     u2910:
  7402                           	line	19
  7403                           	
  7404  002218                     l4001:
  7405  002218  6C03               	negf	((c:___awmod@divisor)),c
  7406  00221A  1E04               	comf	((c:___awmod@divisor+1)),c
  7407  00221C  B0D8               	btfsc	status,0
  7408  00221E  2A04               	incf	((c:___awmod@divisor+1)),c
  7409  002220  D000               	goto	l4003
  7410                           	
  7411  002222                     l409:
  7412                           	line	20
  7413                           	
  7414  002222                     l4003:
  7415  002222  5004               	movf	((c:___awmod@divisor+1)),c,w
  7416  002224  1003               	iorwf ((c:___awmod@divisor)),c,w
  7417                           
  7418  002226  B4D8               	btfsc	status,2
  7419  002228  D001               	goto	u2921
  7420  00222A  D001               	goto	u2920
  7421  00222C                     u2921:
  7422  00222C  D024               	goto	l4019
  7423  00222E                     u2920:
  7424                           	line	21
  7425                           	
  7426  00222E                     l4005:
  7427  00222E  6E05               	movwf	(??___awmod+0+0)&0ffh,c
  7428  002230  0E01               	movlw	low(01h)
  7429  002232  6E06               	movwf	((c:___awmod@counter)),c
  7430  002234  5005               	movf	(??___awmod+0+0)&0ffh,c,w
  7431                           	line	22
  7432  002236  D005               	goto	l4009
  7433                           	
  7434  002238                     l412:
  7435                           	line	23
  7436                           	
  7437  002238                     l4007:
  7438  002238  90D8               	bcf	status,0
  7439  00223A  3603               	rlcf	((c:___awmod@divisor)),c
  7440  00223C  3604               	rlcf	((c:___awmod@divisor+1)),c
  7441                           	line	24
  7442  00223E  2A06               	incf	((c:___awmod@counter)),c
  7443  002240  D000               	goto	l4009
  7444                           	line	25
  7445                           	
  7446  002242                     l411:
  7447                           	line	22
  7448                           	
  7449  002242                     l4009:
  7450                           	
  7451  002242  AE04               	btfss	((c:___awmod@divisor+1)),c,(15)&7
  7452  002244  D001               	goto	u2931
  7453  002246  D001               	goto	u2930
  7454  002248                     u2931:
  7455  002248  D7F7               	goto	l4007
  7456  00224A                     u2930:
  7457  00224A  D001               	goto	l4011
  7458                           	
  7459  00224C                     l413:
  7460  00224C  D000               	goto	l4011
  7461                           	line	26
  7462                           	
  7463  00224E                     l414:
  7464                           	line	27
  7465                           	
  7466  00224E                     l4011:
  7467  00224E  5003               	movf	((c:___awmod@divisor)),c,w
  7468  002250  5C01               	subwf	((c:___awmod@dividend)),c,w
  7469  002252  5004               	movf	((c:___awmod@divisor+1)),c,w
  7470  002254  5802               	subwfb	((c:___awmod@dividend+1)),c,w
  7471  002256  A0D8               	btfss	status,0
  7472  002258  D001               	goto	u2941
  7473  00225A  D001               	goto	u2940
  7474  00225C                     u2941:
  7475  00225C  D005               	goto	l4015
  7476  00225E                     u2940:
  7477                           	line	28
  7478                           	
  7479  00225E                     l4013:
  7480  00225E  5003               	movf	((c:___awmod@divisor)),c,w
  7481  002260  5E01               	subwf	((c:___awmod@dividend)),c
  7482  002262  5004               	movf	((c:___awmod@divisor+1)),c,w
  7483  002264  5A02               	subwfb	((c:___awmod@dividend+1)),c
  7484                           
  7485  002266  D000               	goto	l4015
  7486                           	
  7487  002268                     l415:
  7488                           	line	29
  7489                           	
  7490  002268                     l4015:
  7491  002268  90D8               	bcf	status,0
  7492  00226A  3204               	rrcf	((c:___awmod@divisor+1)),c
  7493  00226C  3203               	rrcf	((c:___awmod@divisor)),c
  7494                           	line	30
  7495                           	
  7496  00226E                     l4017:
  7497  00226E  2E06               	decfsz	((c:___awmod@counter)),c
  7498                           	
  7499  002270  D7EE               	goto	l4011
  7500  002272  D001               	goto	l4019
  7501                           	
  7502  002274                     l416:
  7503  002274  D000               	goto	l4019
  7504                           	line	31
  7505                           	
  7506  002276                     l410:
  7507                           	line	32
  7508                           	
  7509  002276                     l4019:
  7510  002276  5007               	movf	((c:___awmod@sign)),c,w
  7511  002278  B4D8               	btfsc	status,2
  7512  00227A  D001               	goto	u2951
  7513  00227C  D001               	goto	u2950
  7514  00227E                     u2951:
  7515  00227E  D005               	goto	l4023
  7516  002280                     u2950:
  7517                           	line	33
  7518                           	
  7519  002280                     l4021:
  7520  002280  6C01               	negf	((c:___awmod@dividend)),c
  7521  002282  1E02               	comf	((c:___awmod@dividend+1)),c
  7522  002284  B0D8               	btfsc	status,0
  7523  002286  2A02               	incf	((c:___awmod@dividend+1)),c
  7524  002288  D000               	goto	l4023
  7525                           	
  7526  00228A                     l417:
  7527                           	line	34
  7528                           	
  7529  00228A                     l4023:
  7530  00228A  C001  F001         	movff	(c:___awmod@dividend),(c:?___awmod)
  7531  00228E  C002  F002         	movff	(c:___awmod@dividend+1),(c:?___awmod+1)
  7532  002292  D000               	goto	l418
  7533                           	
  7534  002294                     l4025:
  7535                           	line	35
  7536                           	
  7537  002294                     l418:
  7538  002294  0012               	return
  7539  002296  FFFF               	dw	0FFFFh; errata NOP
  7540                           	opt stack 0
  7541                           GLOBAL	__end_of___awmod
  7542  002298                     	__end_of___awmod:
  7543                           	signat	___awmod,8314
  7544                           	global	___ftge
  7545                           
  7546 ;; *************** function ___ftge *****************
  7547 ;; Defined at:
  7548 ;;		line 5 in file "C:\Program Files\HI-TECH Software\PICC-18\9.80\sources\ftge.c"
  7549 ;; Parameters:    Size  Location     Type
  7550 ;;  ff1             3    0[COMRAM] float 
  7551 ;;  ff2             3    3[COMRAM] float 
  7552 ;; Auto vars:     Size  Location     Type
  7553 ;;		None
  7554 ;; Return value:  Size  Location     Type
  7555 ;;		None               void
  7556 ;; Registers used:
  7557 ;;		wreg, status,2, status,0
  7558 ;; Tracked objects:
  7559 ;;		On entry : 0/0
  7560 ;;		On exit  : 0/0
  7561 ;;		Unchanged: 0/0
  7562 ;; Data sizes:     COMRAM   BANK0   BANK1   BANK2   BANK3   BANK4   BANK5
  7563 ;;      Params:         6       0       0       0       0       0       0
  7564 ;;      Locals:         0       0       0       0       0       0       0
  7565 ;;      Temps:          3       0       0       0       0       0       0
  7566 ;;      Totals:         9       0       0       0       0       0       0
  7567 ;;Total ram usage:        9 bytes
  7568 ;; Hardware stack levels used:    1
  7569 ;; This function calls:
  7570 ;;		Nothing
  7571 ;; This function is called by:
  7572 ;;		_sprintf
  7573 ;; This function uses a non-reentrant model
  7574 ;;
  7575                           psect	text20,class=CODE,space=0,reloc=2
  7576                           global __ptext20
  7577  002298                     __ptext20:
  7578                           psect	text20
  7579                           	file	"C:\Program Files\HI-TECH Software\PICC-18\9.80\sources\ftge.c"
  7580                           	line	5
  7581                           	global	__size_of___ftge
  7582  0000                     	__size_of___ftge	equ	__end_of___ftge-___ftge
  7583                           	
  7584  002298                     ___ftge:
  7585                           	opt	stack 28
  7586  002298  FFFF               	dw	0FFFFh
  7587                           	line	6
  7588                           	
  7589  00229A                     l4083:
  7590                           	
  7591  00229A  AE03               	btfss	((c:___ftge@ff1+2)),c,(23)&7
  7592  00229C  D001               	goto	u3021
  7593  00229E  D001               	goto	u3020
  7594  0022A0                     u3021:
  7595  0022A0  D017               	goto	l4087
  7596  0022A2                     u3020:
  7597                           	line	7
  7598                           	
  7599  0022A2                     l4085:
  7600  0022A2  C001  F007         	movff	(c:___ftge@ff1),??___ftge+0+0
  7601  0022A6  C002  F008         	movff	(c:___ftge@ff1+1),??___ftge+0+0+1
  7602  0022AA  C003  F009         	movff	(c:___ftge@ff1+2),??___ftge+0+0+2
  7603  0022AE  1E07               	comf	(??___ftge+0+0),c
  7604  0022B0  1E08               	comf	(??___ftge+0+1),c
  7605  0022B2  1E09               	comf	(??___ftge+0+2),c
  7606  0022B4  2A07               	incf	(??___ftge+0+0),c
  7607  0022B6  0E00               	movlw	0
  7608  0022B8  2208               	addwfc	(??___ftge+0+1),c
  7609  0022BA  2209               	addwfc	(??___ftge+0+2),c
  7610                           
  7611  0022BC  0E00               	movlw	low(0800000h)
  7612  0022BE  2407               	addwf	(??___ftge+0+0),c,w
  7613  0022C0  6E01               	movwf	((c:___ftge@ff1)),c
  7614  0022C2  0E00               	movlw	0
  7615  0022C4  2008               	addwfc	(??___ftge+0+1),c,w
  7616  0022C6  6E02               	movwf	1+((c:___ftge@ff1)),c
  7617  0022C8  0E80               	movlw	080h
  7618  0022CA  2009               	addwfc	(??___ftge+0+2),c,w
  7619  0022CC  6E03               	movwf	2+((c:___ftge@ff1)),c
  7620  0022CE  D000               	goto	l4087
  7621                           	
  7622  0022D0                     l634:
  7623                           	line	8
  7624                           	
  7625  0022D0                     l4087:
  7626                           	
  7627  0022D0  AE06               	btfss	((c:___ftge@ff2+2)),c,(23)&7
  7628  0022D2  D001               	goto	u3031
  7629  0022D4  D001               	goto	u3030
  7630  0022D6                     u3031:
  7631  0022D6  D017               	goto	l4091
  7632  0022D8                     u3030:
  7633                           	line	9
  7634                           	
  7635  0022D8                     l4089:
  7636  0022D8  C004  F007         	movff	(c:___ftge@ff2),??___ftge+0+0
  7637  0022DC  C005  F008         	movff	(c:___ftge@ff2+1),??___ftge+0+0+1
  7638  0022E0  C006  F009         	movff	(c:___ftge@ff2+2),??___ftge+0+0+2
  7639  0022E4  1E07               	comf	(??___ftge+0+0),c
  7640  0022E6  1E08               	comf	(??___ftge+0+1),c
  7641  0022E8  1E09               	comf	(??___ftge+0+2),c
  7642  0022EA  2A07               	incf	(??___ftge+0+0),c
  7643  0022EC  0E00               	movlw	0
  7644  0022EE  2208               	addwfc	(??___ftge+0+1),c
  7645  0022F0  2209               	addwfc	(??___ftge+0+2),c
  7646                           
  7647  0022F2  0E00               	movlw	low(0800000h)
  7648  0022F4  2407               	addwf	(??___ftge+0+0),c,w
  7649  0022F6  6E04               	movwf	((c:___ftge@ff2)),c
  7650  0022F8  0E00               	movlw	0
  7651  0022FA  2008               	addwfc	(??___ftge+0+1),c,w
  7652  0022FC  6E05               	movwf	1+((c:___ftge@ff2)),c
  7653  0022FE  0E80               	movlw	080h
  7654  002300  2009               	addwfc	(??___ftge+0+2),c,w
  7655  002302  6E06               	movwf	2+((c:___ftge@ff2)),c
  7656  002304  D000               	goto	l4091
  7657                           	
  7658  002306                     l635:
  7659                           	line	10
  7660                           	
  7661  002306                     l4091:
  7662  002306  0E00               	movlw	low(0800000h)
  7663  002308  1A01               	xorwf	((c:___ftge@ff1)),c
  7664  00230A  0E00               	movlw	high(0800000h)
  7665  00230C  1A02               	xorwf	((c:___ftge@ff1+1)),c
  7666  00230E  0E80               	movlw	low highword(0800000h)
  7667  002310  1A03               	xorwf	((c:___ftge@ff1+2)),c
  7668                           
  7669                           	line	11
  7670                           	
  7671  002312                     l4093:
  7672  002312  0E00               	movlw	low(0800000h)
  7673  002314  1A04               	xorwf	((c:___ftge@ff2)),c
  7674  002316  0E00               	movlw	high(0800000h)
  7675  002318  1A05               	xorwf	((c:___ftge@ff2+1)),c
  7676  00231A  0E80               	movlw	low highword(0800000h)
  7677  00231C  1A06               	xorwf	((c:___ftge@ff2+2)),c
  7678                           
  7679                           	line	12
  7680  00231E  5004               	movf	((c:___ftge@ff2)),c,w
  7681  002320  5C01               	subwf	((c:___ftge@ff1)),c,w
  7682  002322  5005               	movf	((c:___ftge@ff2+1)),c,w
  7683  002324  5802               	subwfb	((c:___ftge@ff1+1)),c,w
  7684  002326  5006               	movf	((c:___ftge@ff2+2)),c,w
  7685  002328  5803               	subwfb	((c:___ftge@ff1+2)),c,w
  7686  00232A  B0D8               	btfsc	status,0
  7687  00232C  D001               	goto	u3041
  7688  00232E  D001               	goto	u3040
  7689  002330                     u3041:
  7690  002330  D002               	goto	l4097
  7691  002332                     u3040:
  7692                           	
  7693  002332                     l4095:
  7694  002332  90D8               	bcf	status,0
  7695  002334  D003               	goto	l636
  7696                           	
  7697  002336                     l3765:
  7698                           	
  7699  002336                     l4097:
  7700  002336  80D8               	bsf	status,0
  7701  002338  D001               	goto	l636
  7702                           	
  7703  00233A                     l3767:
  7704  00233A  D000               	goto	l636
  7705                           	
  7706  00233C                     l4099:
  7707                           	line	13
  7708                           	
  7709  00233C                     l636:
  7710  00233C  0012               	return
  7711  00233E  FFFF               	dw	0FFFFh; errata NOP
  7712                           	opt stack 0
  7713                           GLOBAL	__end_of___ftge
  7714  002340                     	__end_of___ftge:
  7715                           	signat	___ftge,8312
  7716                           	global	___ftneg
  7717                           
  7718 ;; *************** function ___ftneg *****************
  7719 ;; Defined at:
  7720 ;;		line 16 in file "C:\Program Files\HI-TECH Software\PICC-18\9.80\sources\ftneg.c"
  7721 ;; Parameters:    Size  Location     Type
  7722 ;;  f1              3    0[COMRAM] float 
  7723 ;; Auto vars:     Size  Location     Type
  7724 ;;		None
  7725 ;; Return value:  Size  Location     Type
  7726 ;;                  3    0[COMRAM] float 
  7727 ;; Registers used:
  7728 ;;		wreg, status,2, status,0
  7729 ;; Tracked objects:
  7730 ;;		On entry : 0/0
  7731 ;;		On exit  : 0/0
  7732 ;;		Unchanged: 0/0
  7733 ;; Data sizes:     COMRAM   BANK0   BANK1   BANK2   BANK3   BANK4   BANK5
  7734 ;;      Params:         3       0       0       0       0       0       0
  7735 ;;      Locals:         0       0       0       0       0       0       0
  7736 ;;      Temps:          0       0       0       0       0       0       0
  7737 ;;      Totals:         3       0       0       0       0       0       0
  7738 ;;Total ram usage:        3 bytes
  7739 ;; Hardware stack levels used:    1
  7740 ;; This function calls:
  7741 ;;		Nothing
  7742 ;; This function is called by:
  7743 ;;		_sprintf
  7744 ;; This function uses a non-reentrant model
  7745 ;;
  7746                           psect	text21,class=CODE,space=0,reloc=2
  7747                           global __ptext21
  7748  002826                     __ptext21:
  7749                           psect	text21
  7750                           	file	"C:\Program Files\HI-TECH Software\PICC-18\9.80\sources\ftneg.c"
  7751                           	line	16
  7752                           	global	__size_of___ftneg
  7753  0000                     	__size_of___ftneg	equ	__end_of___ftneg-___ftneg
  7754                           	
  7755  002826                     ___ftneg:
  7756                           	opt	stack 28
  7757  002826  FFFF               	dw	0FFFFh
  7758                           	line	17
  7759                           	
  7760  002828                     l4101:
  7761  002828  0E7F               	movlw	0x7f
  7762  00282A  1403               	andwf	((c:___ftneg@f1+2)),c,w
  7763  00282C  1002               	iorwf	((c:___ftneg@f1+1)),c,w
  7764  00282E  1001               	iorwf	((c:___ftneg@f1)),c,w
  7765  002830  B4D8               	btfsc	status,2
  7766  002832  D001               	goto	u3051
  7767  002834  D001               	goto	u3050
  7768  002836                     u3051:
  7769  002836  D006               	goto	l652
  7770  002838                     u3050:
  7771                           	line	18
  7772                           	
  7773  002838                     l4103:
  7774  002838  0E00               	movlw	low(0800000h)
  7775  00283A  1A01               	xorwf	((c:___ftneg@f1)),c
  7776  00283C  0E00               	movlw	high(0800000h)
  7777  00283E  1A02               	xorwf	((c:___ftneg@f1+1)),c
  7778  002840  0E80               	movlw	low highword(0800000h)
  7779  002842  1A03               	xorwf	((c:___ftneg@f1+2)),c
  7780                           
  7781                           	
  7782  002844                     l652:
  7783                           	line	19
  7784  002844  C001  F001         	movff	(c:___ftneg@f1),(c:?___ftneg)
  7785  002848  C002  F002         	movff	(c:___ftneg@f1+1),(c:?___ftneg+1)
  7786  00284C  C003  F003         	movff	(c:___ftneg@f1+2),(c:?___ftneg+2)
  7787                           	line	20
  7788                           	
  7789  002850                     l653:
  7790  002850  0012               	return
  7791  002852  FFFF               	dw	0FFFFh; errata NOP
  7792                           	opt stack 0
  7793                           GLOBAL	__end_of___ftneg
  7794  002854                     	__end_of___ftneg:
  7795                           	signat	___ftneg,4219
  7796                           	global	___fttol
  7797                           
  7798 ;; *************** function ___fttol *****************
  7799 ;; Defined at:
  7800 ;;		line 45 in file "C:\Program Files\HI-TECH Software\PICC-18\9.80\sources\fttol.c"
  7801 ;; Parameters:    Size  Location     Type
  7802 ;;  f1              3   16[COMRAM] float 
  7803 ;; Auto vars:     Size  Location     Type
  7804 ;;  lval            4   26[COMRAM] unsigned long 
  7805 ;;  exp1            1   30[COMRAM] unsigned char 
  7806 ;;  sign1           1   25[COMRAM] unsigned char 
  7807 ;; Return value:  Size  Location     Type
  7808 ;;                  4   16[COMRAM] long 
  7809 ;; Registers used:
  7810 ;;		wreg, status,2, status,0
  7811 ;; Tracked objects:
  7812 ;;		On entry : 0/0
  7813 ;;		On exit  : 0/0
  7814 ;;		Unchanged: 0/0
  7815 ;; Data sizes:     COMRAM   BANK0   BANK1   BANK2   BANK3   BANK4   BANK5
  7816 ;;      Params:         4       0       0       0       0       0       0
  7817 ;;      Locals:         6       0       0       0       0       0       0
  7818 ;;      Temps:          5       0       0       0       0       0       0
  7819 ;;      Totals:        15       0       0       0       0       0       0
  7820 ;;Total ram usage:       15 bytes
  7821 ;; Hardware stack levels used:    1
  7822 ;; This function calls:
  7823 ;;		Nothing
  7824 ;; This function is called by:
  7825 ;;		_sprintf
  7826 ;; This function uses a non-reentrant model
  7827 ;;
  7828                           psect	text22,class=CODE,space=0,reloc=2
  7829                           global __ptext22
  7830  001C16                     __ptext22:
  7831                           psect	text22
  7832                           	file	"C:\Program Files\HI-TECH Software\PICC-18\9.80\sources\fttol.c"
  7833                           	line	45
  7834                           	global	__size_of___fttol
  7835  0000                     	__size_of___fttol	equ	__end_of___fttol-___fttol
  7836                           	
  7837  001C16                     ___fttol:
  7838                           	opt	stack 28
  7839  001C16  FFFF               	dw	0FFFFh
  7840                           	line	49
  7841                           	
  7842  001C18                     l4371:
  7843  001C18  0E0F               	movlw	(0Fh)&0ffh
  7844  001C1A  6E15               	movwf	(??___fttol+0+0)&0ffh,c
  7845  001C1C  C011  F016         	movff	(c:___fttol@f1),??___fttol+1+0
  7846  001C20  C012  F017         	movff	(c:___fttol@f1+1),??___fttol+1+0+1
  7847  001C24  C013  F018         	movff	(c:___fttol@f1+2),??___fttol+1+0+2
  7848  001C28  2815               	incf	((??___fttol+0+0)),c,w
  7849  001C2A  6E19               	movwf	(??___fttol+4+0)&0ffh,c
  7850  001C2C  D004               	goto	u3470
  7851  001C2E                     u3475:
  7852  001C2E  90D8               	bcf	status,0
  7853  001C30  3218               	rrcf	(??___fttol+1+2),c
  7854  001C32  3217               	rrcf	(??___fttol+1+1),c
  7855  001C34  3216               	rrcf	(??___fttol+1+0),c
  7856  001C36                     u3470:
  7857  001C36  2E19               	decfsz	(??___fttol+4+0)&0ffh,c
  7858  001C38  D7FA               	goto	u3475
  7859  001C3A  5016               	movf	(??___fttol+1+0),c,w
  7860  001C3C  6E1F               	movwf	((c:___fttol@exp1)),c
  7861  001C3E  661F               	tstfsz	((c:___fttol@exp1))&0ffh
  7862  001C40  D001               	goto	u3481
  7863  001C42  D001               	goto	u3480
  7864  001C44                     u3481:
  7865  001C44  D00A               	goto	l4377
  7866  001C46                     u3480:
  7867                           	line	50
  7868                           	
  7869  001C46                     l4373:
  7870  001C46  0E00               	movlw	low(0)
  7871  001C48  6E11               	movwf	((c:?___fttol)),c
  7872  001C4A  0E00               	movlw	high(0)
  7873  001C4C  6E12               	movwf	((c:?___fttol+1)),c
  7874  001C4E  0E00               	movlw	low highword(0)
  7875  001C50  6E13               	movwf	((c:?___fttol+2)),c
  7876  001C52  0E00               	movlw	high highword(0)
  7877  001C54  6E14               	movwf	((c:?___fttol+3)),c
  7878  001C56  D077               	goto	l662
  7879                           	
  7880  001C58                     l4375:
  7881  001C58  D076               	goto	l662
  7882                           	
  7883  001C5A                     l661:
  7884                           	line	51
  7885                           	
  7886  001C5A                     l4377:
  7887  001C5A  0E17               	movlw	(017h)&0ffh
  7888  001C5C  6E15               	movwf	(??___fttol+0+0)&0ffh,c
  7889  001C5E  C011  F016         	movff	(c:___fttol@f1),??___fttol+1+0
  7890  001C62  C012  F017         	movff	(c:___fttol@f1+1),??___fttol+1+0+1
  7891  001C66  C013  F018         	movff	(c:___fttol@f1+2),??___fttol+1+0+2
  7892  001C6A  2815               	incf	((??___fttol+0+0)),c,w
  7893  001C6C  6E19               	movwf	(??___fttol+4+0)&0ffh,c
  7894  001C6E  D004               	goto	u3490
  7895  001C70                     u3495:
  7896  001C70  90D8               	bcf	status,0
  7897  001C72  3218               	rrcf	(??___fttol+1+2),c
  7898  001C74  3217               	rrcf	(??___fttol+1+1),c
  7899  001C76  3216               	rrcf	(??___fttol+1+0),c
  7900  001C78                     u3490:
  7901  001C78  2E19               	decfsz	(??___fttol+4+0)&0ffh,c
  7902  001C7A  D7FA               	goto	u3495
  7903  001C7C  5016               	movf	(??___fttol+1+0),c,w
  7904  001C7E  6E1A               	movwf	((c:___fttol@sign1)),c
  7905                           	line	52
  7906                           	
  7907  001C80                     l4379:
  7908  001C80  8E12               	bsf	(0+(15/8)+(c:___fttol@f1)),c,(15)&7
  7909                           	line	53
  7910                           	
  7911  001C82                     l4381:
  7912  001C82  0EFF               	movlw	low(0FFFFh)
  7913  001C84  1611               	andwf	((c:___fttol@f1)),c
  7914  001C86  0EFF               	movlw	high(0FFFFh)
  7915  001C88  1612               	andwf	((c:___fttol@f1+1)),c
  7916  001C8A  0E00               	movlw	low highword(0FFFFh)
  7917  001C8C  1613               	andwf	((c:___fttol@f1+2)),c
  7918                           
  7919                           	line	54
  7920                           	
  7921  001C8E                     l4383:
  7922  001C8E  5011               	movf	((c:___fttol@f1)),c,w
  7923  001C90  6E1B               	movwf	((c:___fttol@lval)),c
  7924  001C92  5012               	movf	((c:___fttol@f1+1)),c,w
  7925  001C94  6E1C               	movwf	1+((c:___fttol@lval)),c
  7926                           	
  7927  001C96  5013               	movf	((c:___fttol@f1+2)),c,w
  7928  001C98  6E1D               	movwf	2+((c:___fttol@lval)),c
  7929                           	
  7930  001C9A  6A1E               	clrf	3+((c:___fttol@lval)),c
  7931                           	line	55
  7932                           	
  7933  001C9C                     l4385:
  7934  001C9C  0E8E               	movlw	(08Eh)&0ffh
  7935  001C9E  5E1F               	subwf	((c:___fttol@exp1)),c
  7936                           	line	56
  7937                           	
  7938  001CA0                     l4387:
  7939  001CA0  AE1F               	btfss	((c:___fttol@exp1)),c,7
  7940  001CA2  D001               	goto	u3501
  7941  001CA4  D001               	goto	u3500
  7942  001CA6                     u3501:
  7943  001CA6  D01B               	goto	l4399
  7944  001CA8                     u3500:
  7945                           	line	57
  7946                           	
  7947  001CA8                     l4389:
  7948  001CA8  501F               	movf	((c:___fttol@exp1)),c,w
  7949  001CAA  0A80               	xorlw	80h
  7950  001CAC  0F8F               	addlw	-((-15)^80h)
  7951  001CAE  B0D8               	btfsc	status,0
  7952  001CB0  D001               	goto	u3511
  7953  001CB2  D001               	goto	u3510
  7954  001CB4                     u3511:
  7955  001CB4  D00B               	goto	l4395
  7956  001CB6                     u3510:
  7957                           	line	58
  7958                           	
  7959  001CB6                     l4391:
  7960  001CB6  0E00               	movlw	low(0)
  7961  001CB8  6E11               	movwf	((c:?___fttol)),c
  7962  001CBA  0E00               	movlw	high(0)
  7963  001CBC  6E12               	movwf	((c:?___fttol+1)),c
  7964  001CBE  0E00               	movlw	low highword(0)
  7965  001CC0  6E13               	movwf	((c:?___fttol+2)),c
  7966  001CC2  0E00               	movlw	high highword(0)
  7967  001CC4  6E14               	movwf	((c:?___fttol+3)),c
  7968  001CC6  D03F               	goto	l662
  7969                           	
  7970  001CC8                     l4393:
  7971  001CC8  D03E               	goto	l662
  7972                           	
  7973  001CCA                     l664:
  7974  001CCA  D000               	goto	l4395
  7975                           	line	59
  7976                           	
  7977  001CCC                     l665:
  7978                           	line	60
  7979                           	
  7980  001CCC                     l4395:
  7981  001CCC  90D8               	bcf	status,0
  7982  001CCE  321E               	rrcf	((c:___fttol@lval+3)),c
  7983  001CD0  321D               	rrcf	((c:___fttol@lval+2)),c
  7984  001CD2  321C               	rrcf	((c:___fttol@lval+1)),c
  7985  001CD4  321B               	rrcf	((c:___fttol@lval)),c
  7986                           	line	61
  7987                           	
  7988  001CD6                     l4397:
  7989  001CD6  3E1F               	incfsz	((c:___fttol@exp1)),c
  7990                           	
  7991  001CD8  D7F9               	goto	l4395
  7992  001CDA  D01E               	goto	l4409
  7993                           	
  7994  001CDC                     l666:
  7995                           	line	62
  7996  001CDC  D01D               	goto	l4409
  7997                           	
  7998  001CDE                     l663:
  7999                           	line	63
  8000                           	
  8001  001CDE                     l4399:
  8002  001CDE  0E17               	movlw	(018h-1)
  8003  001CE0  641F               	cpfsgt	((c:___fttol@exp1)),c
  8004  001CE2  D001               	goto	u3521
  8005  001CE4  D001               	goto	u3520
  8006  001CE6                     u3521:
  8007  001CE6  D012               	goto	l4407
  8008  001CE8                     u3520:
  8009                           	line	64
  8010                           	
  8011  001CE8                     l4401:
  8012  001CE8  0E00               	movlw	low(0)
  8013  001CEA  6E11               	movwf	((c:?___fttol)),c
  8014  001CEC  0E00               	movlw	high(0)
  8015  001CEE  6E12               	movwf	((c:?___fttol+1)),c
  8016  001CF0  0E00               	movlw	low highword(0)
  8017  001CF2  6E13               	movwf	((c:?___fttol+2)),c
  8018  001CF4  0E00               	movlw	high highword(0)
  8019  001CF6  6E14               	movwf	((c:?___fttol+3)),c
  8020  001CF8  D026               	goto	l662
  8021                           	
  8022  001CFA                     l4403:
  8023  001CFA  D025               	goto	l662
  8024                           	
  8025  001CFC                     l668:
  8026                           	line	65
  8027  001CFC  D007               	goto	l4407
  8028                           	
  8029  001CFE                     l670:
  8030                           	line	66
  8031                           	
  8032  001CFE                     l4405:
  8033  001CFE  90D8               	bcf	status,0
  8034  001D00  361B               	rlcf	((c:___fttol@lval)),c
  8035  001D02  361C               	rlcf	((c:___fttol@lval+1)),c
  8036  001D04  361D               	rlcf	((c:___fttol@lval+2)),c
  8037  001D06  361E               	rlcf	((c:___fttol@lval+3)),c
  8038                           	line	67
  8039  001D08  061F               	decf	((c:___fttol@exp1)),c
  8040  001D0A  D000               	goto	l4407
  8041                           	line	68
  8042                           	
  8043  001D0C                     l669:
  8044                           	line	65
  8045                           	
  8046  001D0C                     l4407:
  8047  001D0C  661F               	tstfsz	((c:___fttol@exp1)),c
  8048  001D0E  D001               	goto	u3531
  8049  001D10  D001               	goto	u3530
  8050  001D12                     u3531:
  8051  001D12  D7F5               	goto	l4405
  8052  001D14                     u3530:
  8053  001D14  D001               	goto	l4409
  8054                           	
  8055  001D16                     l671:
  8056  001D16  D000               	goto	l4409
  8057                           	line	69
  8058                           	
  8059  001D18                     l667:
  8060                           	line	70
  8061                           	
  8062  001D18                     l4409:
  8063  001D18  501A               	movf	((c:___fttol@sign1)),c,w
  8064  001D1A  B4D8               	btfsc	status,2
  8065  001D1C  D001               	goto	u3541
  8066  001D1E  D001               	goto	u3540
  8067  001D20                     u3541:
  8068  001D20  D009               	goto	l4413
  8069  001D22                     u3540:
  8070                           	line	71
  8071                           	
  8072  001D22                     l4411:
  8073  001D22  1E1E               	comf	((c:___fttol@lval+3)),c
  8074  001D24  1E1D               	comf	((c:___fttol@lval+2)),c
  8075  001D26  1E1C               	comf	((c:___fttol@lval+1)),c
  8076  001D28  6C1B               	negf	((c:___fttol@lval)),c
  8077  001D2A  0E00               	movlw	0
  8078  001D2C  221C               	addwfc	((c:___fttol@lval+1)),c
  8079  001D2E  221D               	addwfc	((c:___fttol@lval+2)),c
  8080  001D30  221E               	addwfc	((c:___fttol@lval+3)),c
  8081  001D32  D000               	goto	l4413
  8082                           	
  8083  001D34                     l672:
  8084                           	line	72
  8085                           	
  8086  001D34                     l4413:
  8087  001D34  C01B  F011         	movff	(c:___fttol@lval),(c:?___fttol)
  8088  001D38  C01C  F012         	movff	(c:___fttol@lval+1),(c:?___fttol+1)
  8089  001D3C  C01D  F013         	movff	(c:___fttol@lval+2),(c:?___fttol+2)
  8090  001D40  C01E  F014         	movff	(c:___fttol@lval+3),(c:?___fttol+3)
  8091  001D44  D000               	goto	l662
  8092                           	
  8093  001D46                     l4415:
  8094                           	line	73
  8095                           	
  8096  001D46                     l662:
  8097  001D46  0012               	return
  8098  001D48  FFFF               	dw	0FFFFh; errata NOP
  8099                           	opt stack 0
  8100                           GLOBAL	__end_of___fttol
  8101  001D4A                     	__end_of___fttol:
  8102                           	signat	___fttol,4220
  8103                           	global	___lldiv
  8104                           
  8105 ;; *************** function ___lldiv *****************
  8106 ;; Defined at:
  8107 ;;		line 10 in file "C:\Program Files\HI-TECH Software\PICC-18\9.80\sources\lldiv.c"
  8108 ;; Parameters:    Size  Location     Type
  8109 ;;  dividend        4    0[COMRAM] unsigned long 
  8110 ;;  divisor         4    4[COMRAM] unsigned long 
  8111 ;; Auto vars:     Size  Location     Type
  8112 ;;  quotient        4    9[COMRAM] unsigned long 
  8113 ;;  counter         1   13[COMRAM] unsigned char 
  8114 ;; Return value:  Size  Location     Type
  8115 ;;                  4    0[COMRAM] unsigned long 
  8116 ;; Registers used:
  8117 ;;		wreg, status,2, status,0
  8118 ;; Tracked objects:
  8119 ;;		On entry : 0/0
  8120 ;;		On exit  : 0/0
  8121 ;;		Unchanged: 0/0
  8122 ;; Data sizes:     COMRAM   BANK0   BANK1   BANK2   BANK3   BANK4   BANK5
  8123 ;;      Params:         8       0       0       0       0       0       0
  8124 ;;      Locals:         5       0       0       0       0       0       0
  8125 ;;      Temps:          1       0       0       0       0       0       0
  8126 ;;      Totals:        14       0       0       0       0       0       0
  8127 ;;Total ram usage:       14 bytes
  8128 ;; Hardware stack levels used:    1
  8129 ;; This function calls:
  8130 ;;		Nothing
  8131 ;; This function is called by:
  8132 ;;		_sprintf
  8133 ;; This function uses a non-reentrant model
  8134 ;;
  8135                           psect	text23,class=CODE,space=0,reloc=2
  8136                           global __ptext23
  8137  002340                     __ptext23:
  8138                           psect	text23
  8139                           	file	"C:\Program Files\HI-TECH Software\PICC-18\9.80\sources\lldiv.c"
  8140                           	line	10
  8141                           	global	__size_of___lldiv
  8142  0000                     	__size_of___lldiv	equ	__end_of___lldiv-___lldiv
  8143                           	
  8144  002340                     ___lldiv:
  8145                           	opt	stack 28
  8146  002340  FFFF               	dw	0FFFFh
  8147                           	line	14
  8148                           	
  8149  002342                     l4109:
  8150  002342  0E00               	movlw	low(0)
  8151  002344  6E0A               	movwf	((c:___lldiv@quotient)),c
  8152  002346  0E00               	movlw	high(0)
  8153  002348  6E0B               	movwf	((c:___lldiv@quotient+1)),c
  8154  00234A  0E00               	movlw	low highword(0)
  8155  00234C  6E0C               	movwf	((c:___lldiv@quotient+2)),c
  8156  00234E  0E00               	movlw	high highword(0)
  8157  002350  6E0D               	movwf	((c:___lldiv@quotient+3)),c
  8158                           	line	15
  8159                           	
  8160  002352                     l4111:
  8161  002352  5008               	movf	((c:___lldiv@divisor+3)),c,w
  8162  002354  1005               	iorwf ((c:___lldiv@divisor)),c,w
  8163  002356  1006               	iorwf ((c:___lldiv@divisor+1)),c,w
  8164  002358  1007               	iorwf ((c:___lldiv@divisor+2)),c,w
  8165                           
  8166  00235A  B4D8               	btfsc	status,2
  8167  00235C  D001               	goto	u3061
  8168  00235E  D001               	goto	u3060
  8169  002360                     u3061:
  8170  002360  D035               	goto	l701
  8171  002362                     u3060:
  8172                           	line	16
  8173                           	
  8174  002362                     l4113:
  8175  002362  6E09               	movwf	(??___lldiv+0+0)&0ffh,c
  8176  002364  0E01               	movlw	low(01h)
  8177  002366  6E0E               	movwf	((c:___lldiv@counter)),c
  8178  002368  5009               	movf	(??___lldiv+0+0)&0ffh,c,w
  8179                           	line	17
  8180  00236A  D007               	goto	l4117
  8181                           	
  8182  00236C                     l703:
  8183                           	line	18
  8184                           	
  8185  00236C                     l4115:
  8186  00236C  90D8               	bcf	status,0
  8187  00236E  3605               	rlcf	((c:___lldiv@divisor)),c
  8188  002370  3606               	rlcf	((c:___lldiv@divisor+1)),c
  8189  002372  3607               	rlcf	((c:___lldiv@divisor+2)),c
  8190  002374  3608               	rlcf	((c:___lldiv@divisor+3)),c
  8191                           	line	19
  8192  002376  2A0E               	incf	((c:___lldiv@counter)),c
  8193  002378  D000               	goto	l4117
  8194                           	line	20
  8195                           	
  8196  00237A                     l702:
  8197                           	line	17
  8198                           	
  8199  00237A                     l4117:
  8200                           	
  8201  00237A  AE08               	btfss	((c:___lldiv@divisor+3)),c,(31)&7
  8202  00237C  D001               	goto	u3071
  8203  00237E  D001               	goto	u3070
  8204  002380                     u3071:
  8205  002380  D7F5               	goto	l4115
  8206  002382                     u3070:
  8207  002382  D001               	goto	l4119
  8208                           	
  8209  002384                     l704:
  8210  002384  D000               	goto	l4119
  8211                           	line	21
  8212                           	
  8213  002386                     l705:
  8214                           	line	22
  8215                           	
  8216  002386                     l4119:
  8217  002386  90D8               	bcf	status,0
  8218  002388  360A               	rlcf	((c:___lldiv@quotient)),c
  8219  00238A  360B               	rlcf	((c:___lldiv@quotient+1)),c
  8220  00238C  360C               	rlcf	((c:___lldiv@quotient+2)),c
  8221  00238E  360D               	rlcf	((c:___lldiv@quotient+3)),c
  8222                           	line	23
  8223                           	
  8224  002390                     l4121:
  8225  002390  5005               	movf	((c:___lldiv@divisor)),c,w
  8226  002392  5C01               	subwf	((c:___lldiv@dividend)),c,w
  8227  002394  5006               	movf	((c:___lldiv@divisor+1)),c,w
  8228  002396  5802               	subwfb	((c:___lldiv@dividend+1)),c,w
  8229  002398  5007               	movf	((c:___lldiv@divisor+2)),c,w
  8230  00239A  5803               	subwfb	((c:___lldiv@dividend+2)),c,w
  8231  00239C  5008               	movf	((c:___lldiv@divisor+3)),c,w
  8232  00239E  5804               	subwfb	((c:___lldiv@dividend+3)),c,w
  8233  0023A0  A0D8               	btfss	status,0
  8234  0023A2  D001               	goto	u3081
  8235  0023A4  D001               	goto	u3080
  8236  0023A6                     u3081:
  8237  0023A6  D00A               	goto	l4127
  8238  0023A8                     u3080:
  8239                           	line	24
  8240                           	
  8241  0023A8                     l4123:
  8242  0023A8  5005               	movf	((c:___lldiv@divisor)),c,w
  8243  0023AA  5E01               	subwf	((c:___lldiv@dividend)),c
  8244  0023AC  5006               	movf	((c:___lldiv@divisor+1)),c,w
  8245  0023AE  5A02               	subwfb	((c:___lldiv@dividend+1)),c
  8246  0023B0  5007               	movf	((c:___lldiv@divisor+2)),c,w
  8247  0023B2  5A03               	subwfb	((c:___lldiv@dividend+2)),c
  8248  0023B4  5008               	movf	((c:___lldiv@divisor+3)),c,w
  8249  0023B6  5A04               	subwfb	((c:___lldiv@dividend+3)),c
  8250                           	line	25
  8251                           	
  8252  0023B8                     l4125:
  8253  0023B8  800A               	bsf	(0+(0/8)+(c:___lldiv@quotient)),c,(0)&7
  8254  0023BA  D000               	goto	l4127
  8255                           	line	26
  8256                           	
  8257  0023BC                     l706:
  8258                           	line	27
  8259                           	
  8260  0023BC                     l4127:
  8261  0023BC  90D8               	bcf	status,0
  8262  0023BE  3208               	rrcf	((c:___lldiv@divisor+3)),c
  8263  0023C0  3207               	rrcf	((c:___lldiv@divisor+2)),c
  8264  0023C2  3206               	rrcf	((c:___lldiv@divisor+1)),c
  8265  0023C4  3205               	rrcf	((c:___lldiv@divisor)),c
  8266                           	line	28
  8267                           	
  8268  0023C6                     l4129:
  8269  0023C6  2E0E               	decfsz	((c:___lldiv@counter)),c
  8270                           	
  8271  0023C8  D7DE               	goto	l4119
  8272  0023CA  D000               	goto	l701
  8273                           	
  8274  0023CC                     l707:
  8275                           	line	29
  8276                           	
  8277  0023CC                     l701:
  8278                           	line	30
  8279  0023CC  C00A  F001         	movff	(c:___lldiv@quotient),(c:?___lldiv)
  8280  0023D0  C00B  F002         	movff	(c:___lldiv@quotient+1),(c:?___lldiv+1)
  8281  0023D4  C00C  F003         	movff	(c:___lldiv@quotient+2),(c:?___lldiv+2)
  8282  0023D8  C00D  F004         	movff	(c:___lldiv@quotient+3),(c:?___lldiv+3)
  8283                           	line	31
  8284                           	
  8285  0023DC                     l708:
  8286  0023DC  0012               	return
  8287  0023DE  FFFF               	dw	0FFFFh; errata NOP
  8288                           	opt stack 0
  8289                           GLOBAL	__end_of___lldiv
  8290  0023E0                     	__end_of___lldiv:
  8291                           	signat	___lldiv,8316
  8292                           	global	___llmod
  8293                           
  8294 ;; *************** function ___llmod *****************
  8295 ;; Defined at:
  8296 ;;		line 10 in file "C:\Program Files\HI-TECH Software\PICC-18\9.80\sources\llmod.c"
  8297 ;; Parameters:    Size  Location     Type
  8298 ;;  dividend        4   14[COMRAM] unsigned long 
  8299 ;;  divisor         4   18[COMRAM] unsigned long 
  8300 ;; Auto vars:     Size  Location     Type
  8301 ;;  counter         1   23[COMRAM] unsigned char 
  8302 ;; Return value:  Size  Location     Type
  8303 ;;                  4   14[COMRAM] unsigned long 
  8304 ;; Registers used:
  8305 ;;		wreg, status,2, status,0
  8306 ;; Tracked objects:
  8307 ;;		On entry : 0/0
  8308 ;;		On exit  : 0/0
  8309 ;;		Unchanged: 0/0
  8310 ;; Data sizes:     COMRAM   BANK0   BANK1   BANK2   BANK3   BANK4   BANK5
  8311 ;;      Params:         8       0       0       0       0       0       0
  8312 ;;      Locals:         1       0       0       0       0       0       0
  8313 ;;      Temps:          1       0       0       0       0       0       0
  8314 ;;      Totals:        10       0       0       0       0       0       0
  8315 ;;Total ram usage:       10 bytes
  8316 ;; Hardware stack levels used:    1
  8317 ;; This function calls:
  8318 ;;		Nothing
  8319 ;; This function is called by:
  8320 ;;		_sprintf
  8321 ;; This function uses a non-reentrant model
  8322 ;;
  8323                           psect	text24,class=CODE,space=0,reloc=2
  8324                           global __ptext24
  8325  0023E0                     __ptext24:
  8326                           psect	text24
  8327                           	file	"C:\Program Files\HI-TECH Software\PICC-18\9.80\sources\llmod.c"
  8328                           	line	10
  8329                           	global	__size_of___llmod
  8330  0000                     	__size_of___llmod	equ	__end_of___llmod-___llmod
  8331                           	
  8332  0023E0                     ___llmod:
  8333                           	opt	stack 28
  8334  0023E0  FFFF               	dw	0FFFFh
  8335                           	line	13
  8336                           	
  8337  0023E2                     l4417:
  8338  0023E2  5016               	movf	((c:___llmod@divisor+3)),c,w
  8339  0023E4  1013               	iorwf ((c:___llmod@divisor)),c,w
  8340  0023E6  1014               	iorwf ((c:___llmod@divisor+1)),c,w
  8341  0023E8  1015               	iorwf ((c:___llmod@divisor+2)),c,w
  8342                           
  8343  0023EA  B4D8               	btfsc	status,2
  8344  0023EC  D001               	goto	u3551
  8345  0023EE  D001               	goto	u3550
  8346  0023F0                     u3551:
  8347  0023F0  D02F               	goto	l711
  8348  0023F2                     u3550:
  8349                           	line	14
  8350                           	
  8351  0023F2                     l4419:
  8352  0023F2  6E17               	movwf	(??___llmod+0+0)&0ffh,c
  8353  0023F4  0E01               	movlw	low(01h)
  8354  0023F6  6E18               	movwf	((c:___llmod@counter)),c
  8355  0023F8  5017               	movf	(??___llmod+0+0)&0ffh,c,w
  8356                           	line	15
  8357  0023FA  D007               	goto	l4423
  8358                           	
  8359  0023FC                     l713:
  8360                           	line	16
  8361                           	
  8362  0023FC                     l4421:
  8363  0023FC  90D8               	bcf	status,0
  8364  0023FE  3613               	rlcf	((c:___llmod@divisor)),c
  8365  002400  3614               	rlcf	((c:___llmod@divisor+1)),c
  8366  002402  3615               	rlcf	((c:___llmod@divisor+2)),c
  8367  002404  3616               	rlcf	((c:___llmod@divisor+3)),c
  8368                           	line	17
  8369  002406  2A18               	incf	((c:___llmod@counter)),c
  8370  002408  D000               	goto	l4423
  8371                           	line	18
  8372                           	
  8373  00240A                     l712:
  8374                           	line	15
  8375                           	
  8376  00240A                     l4423:
  8377                           	
  8378  00240A  AE16               	btfss	((c:___llmod@divisor+3)),c,(31)&7
  8379  00240C  D001               	goto	u3561
  8380  00240E  D001               	goto	u3560
  8381  002410                     u3561:
  8382  002410  D7F5               	goto	l4421
  8383  002412                     u3560:
  8384  002412  D001               	goto	l4425
  8385                           	
  8386  002414                     l714:
  8387  002414  D000               	goto	l4425
  8388                           	line	19
  8389                           	
  8390  002416                     l715:
  8391                           	line	20
  8392                           	
  8393  002416                     l4425:
  8394  002416  5013               	movf	((c:___llmod@divisor)),c,w
  8395  002418  5C0F               	subwf	((c:___llmod@dividend)),c,w
  8396  00241A  5014               	movf	((c:___llmod@divisor+1)),c,w
  8397  00241C  5810               	subwfb	((c:___llmod@dividend+1)),c,w
  8398  00241E  5015               	movf	((c:___llmod@divisor+2)),c,w
  8399  002420  5811               	subwfb	((c:___llmod@dividend+2)),c,w
  8400  002422  5016               	movf	((c:___llmod@divisor+3)),c,w
  8401  002424  5812               	subwfb	((c:___llmod@dividend+3)),c,w
  8402  002426  A0D8               	btfss	status,0
  8403  002428  D001               	goto	u3571
  8404  00242A  D001               	goto	u3570
  8405  00242C                     u3571:
  8406  00242C  D009               	goto	l4429
  8407  00242E                     u3570:
  8408                           	line	21
  8409                           	
  8410  00242E                     l4427:
  8411  00242E  5013               	movf	((c:___llmod@divisor)),c,w
  8412  002430  5E0F               	subwf	((c:___llmod@dividend)),c
  8413  002432  5014               	movf	((c:___llmod@divisor+1)),c,w
  8414  002434  5A10               	subwfb	((c:___llmod@dividend+1)),c
  8415  002436  5015               	movf	((c:___llmod@divisor+2)),c,w
  8416  002438  5A11               	subwfb	((c:___llmod@dividend+2)),c
  8417  00243A  5016               	movf	((c:___llmod@divisor+3)),c,w
  8418  00243C  5A12               	subwfb	((c:___llmod@dividend+3)),c
  8419  00243E  D000               	goto	l4429
  8420                           	
  8421  002440                     l716:
  8422                           	line	22
  8423                           	
  8424  002440                     l4429:
  8425  002440  90D8               	bcf	status,0
  8426  002442  3216               	rrcf	((c:___llmod@divisor+3)),c
  8427  002444  3215               	rrcf	((c:___llmod@divisor+2)),c
  8428  002446  3214               	rrcf	((c:___llmod@divisor+1)),c
  8429  002448  3213               	rrcf	((c:___llmod@divisor)),c
  8430                           	line	23
  8431                           	
  8432  00244A                     l4431:
  8433  00244A  2E18               	decfsz	((c:___llmod@counter)),c
  8434                           	
  8435  00244C  D7E4               	goto	l4425
  8436  00244E  D000               	goto	l711
  8437                           	
  8438  002450                     l717:
  8439                           	line	24
  8440                           	
  8441  002450                     l711:
  8442                           	line	25
  8443  002450  C00F  F00F         	movff	(c:___llmod@dividend),(c:?___llmod)
  8444  002454  C010  F010         	movff	(c:___llmod@dividend+1),(c:?___llmod+1)
  8445  002458  C011  F011         	movff	(c:___llmod@dividend+2),(c:?___llmod+2)
  8446  00245C  C012  F012         	movff	(c:___llmod@dividend+3),(c:?___llmod+3)
  8447                           	line	26
  8448                           	
  8449  002460                     l718:
  8450  002460  0012               	return
  8451  002462  FFFF               	dw	0FFFFh; errata NOP
  8452                           	opt stack 0
  8453                           GLOBAL	__end_of___llmod
  8454  002464                     	__end_of___llmod:
  8455                           	signat	___llmod,8316
  8456                           	global	___lltoft
  8457                           
  8458 ;; *************** function ___lltoft *****************
  8459 ;; Defined at:
  8460 ;;		line 36 in file "C:\Program Files\HI-TECH Software\PICC-18\9.80\sources\lltoft.c"
  8461 ;; Parameters:    Size  Location     Type
  8462 ;;  c               4    8[COMRAM] unsigned long 
  8463 ;; Auto vars:     Size  Location     Type
  8464 ;;  exp             1   16[COMRAM] unsigned char 
  8465 ;; Return value:  Size  Location     Type
  8466 ;;                  3    8[COMRAM] float 
  8467 ;; Registers used:
  8468 ;;		wreg, status,2, status,0, cstack
  8469 ;; Tracked objects:
  8470 ;;		On entry : 0/0
  8471 ;;		On exit  : 0/0
  8472 ;;		Unchanged: 0/0
  8473 ;; Data sizes:     COMRAM   BANK0   BANK1   BANK2   BANK3   BANK4   BANK5
  8474 ;;      Params:         4       0       0       0       0       0       0
  8475 ;;      Locals:         1       0       0       0       0       0       0
  8476 ;;      Temps:          4       0       0       0       0       0       0
  8477 ;;      Totals:         9       0       0       0       0       0       0
  8478 ;;Total ram usage:        9 bytes
  8479 ;; Hardware stack levels used:    1
  8480 ;; Hardware stack levels required when called:    1
  8481 ;; This function calls:
  8482 ;;		___ftpack
  8483 ;; This function is called by:
  8484 ;;		_sprintf
  8485 ;; This function uses a non-reentrant model
  8486 ;;
  8487                           psect	text25,class=CODE,space=0,reloc=2
  8488                           global __ptext25
  8489  0024DA                     __ptext25:
  8490                           psect	text25
  8491                           	file	"C:\Program Files\HI-TECH Software\PICC-18\9.80\sources\lltoft.c"
  8492                           	line	36
  8493                           	global	__size_of___lltoft
  8494  0000                     	__size_of___lltoft	equ	__end_of___lltoft-___lltoft
  8495                           	
  8496  0024DA                     ___lltoft:
  8497                           	opt	stack 27
  8498  0024DA  FFFF               	dw	0FFFFh
  8499                           	line	38
  8500                           	
  8501  0024DC                     l4433:
  8502  0024DC  6E0D               	movwf	(??___lltoft+0+0)&0ffh,c
  8503  0024DE  0E8E               	movlw	low(08Eh)
  8504  0024E0  6E11               	movwf	((c:___lltoft@exp)),c
  8505  0024E2  500D               	movf	(??___lltoft+0+0)&0ffh,c,w
  8506                           	line	41
  8507  0024E4  D007               	goto	l4437
  8508                           	
  8509  0024E6                     l729:
  8510                           	line	42
  8511                           	
  8512  0024E6                     l4435:
  8513  0024E6  90D8               	bcf	status,0
  8514  0024E8  320C               	rrcf	((c:___lltoft@c+3)),c
  8515  0024EA  320B               	rrcf	((c:___lltoft@c+2)),c
  8516  0024EC  320A               	rrcf	((c:___lltoft@c+1)),c
  8517  0024EE  3209               	rrcf	((c:___lltoft@c)),c
  8518                           	line	43
  8519  0024F0  2A11               	incf	((c:___lltoft@exp)),c
  8520  0024F2  D000               	goto	l4437
  8521                           	line	44
  8522                           	
  8523  0024F4                     l728:
  8524                           	line	41
  8525                           	
  8526  0024F4                     l4437:
  8527  0024F4  0E00               	movlw	0
  8528  0024F6  1409               	andwf	((c:___lltoft@c)),c,w
  8529  0024F8  6E0D               	movwf	(??___lltoft+0+0)&0ffh,c
  8530  0024FA  0E00               	movlw	0
  8531  0024FC  140A               	andwf	((c:___lltoft@c+1)),c,w
  8532  0024FE  6E0E               	movwf	1+(??___lltoft+0+0)&0ffh,c
  8533  002500  0E00               	movlw	0
  8534  002502  140B               	andwf	((c:___lltoft@c+2)),c,w
  8535  002504  6E0F               	movwf	2+(??___lltoft+0+0)&0ffh,c
  8536  002506  0EFF               	movlw	0FFh
  8537  002508  140C               	andwf	((c:___lltoft@c+3)),c,w
  8538  00250A  6E10               	movwf	3+(??___lltoft+0+0)&0ffh,c
  8539  00250C  5010               	movf	(??___lltoft+0+3),c,w
  8540  00250E  100D               	iorwf (??___lltoft+0+0),c,w
  8541  002510  100E               	iorwf (??___lltoft+0+1),c,w
  8542  002512  100F               	iorwf (??___lltoft+0+2),c,w
  8543                           
  8544  002514  A4D8               	btfss	status,2
  8545  002516  D001               	goto	u3581
  8546  002518  D001               	goto	u3580
  8547  00251A                     u3581:
  8548  00251A  D7E5               	goto	l4435
  8549  00251C                     u3580:
  8550  00251C  D000               	goto	l4439
  8551                           	
  8552  00251E                     l730:
  8553                           	line	45
  8554                           	
  8555  00251E                     l4439:
  8556  00251E  C009  F001         	movff	(c:___lltoft@c),(c:?___ftpack)
  8557  002522  C00A  F002         	movff	(c:___lltoft@c+1),(c:?___ftpack+1)
  8558  002526  C00B  F003         	movff	(c:___lltoft@c+2),(c:?___ftpack+2)
  8559  00252A  C011  F004         	movff	(c:___lltoft@exp),0+((c:?___ftpack)+03h)
  8560  00252E  6E0D               	movwf	(??___lltoft+0+0)&0ffh,c
  8561  002530  0E00               	movlw	low(0)
  8562  002532  6E05               	movwf	(0+((c:?___ftpack)+04h)),c
  8563  002534  500D               	movf	(??___lltoft+0+0)&0ffh,c,w
  8564  002536  ECA7  F00F         	call	___ftpack	;wreg free
  8565  00253A  C001  F009         	movff	0+?___ftpack,(c:?___lltoft)
  8566  00253E  C002  F00A         	movff	1+?___ftpack,(c:?___lltoft+1)
  8567  002542  C003  F00B         	movff	2+?___ftpack,(c:?___lltoft+2)
  8568  002546  D000               	goto	l731
  8569                           	
  8570  002548                     l4441:
  8571                           	line	46
  8572                           	
  8573  002548                     l731:
  8574  002548  0012               	return
  8575  00254A  FFFF               	dw	0FFFFh; errata NOP
  8576                           	opt stack 0
  8577                           GLOBAL	__end_of___lltoft
  8578  00254C                     	__end_of___lltoft:
  8579                           	signat	___lltoft,4219
  8580                           	global	___wmul
  8581                           
  8582 ;; *************** function ___wmul *****************
  8583 ;; Defined at:
  8584 ;;		line 3 in file "C:\Program Files\HI-TECH Software\PICC-18\9.80\sources\wmul.c"
  8585 ;; Parameters:    Size  Location     Type
  8586 ;;  multiplier      2    0[COMRAM] unsigned int 
  8587 ;;  multiplicand    2    2[COMRAM] unsigned int 
  8588 ;; Auto vars:     Size  Location     Type
  8589 ;;  product         2    4[COMRAM] unsigned int 
  8590 ;; Return value:  Size  Location     Type
  8591 ;;                  2    0[COMRAM] unsigned int 
  8592 ;; Registers used:
  8593 ;;		wreg, status,2, status,0
  8594 ;; Tracked objects:
  8595 ;;		On entry : 0/0
  8596 ;;		On exit  : 0/0
  8597 ;;		Unchanged: 0/0
  8598 ;; Data sizes:     COMRAM   BANK0   BANK1   BANK2   BANK3   BANK4   BANK5
  8599 ;;      Params:         4       0       0       0       0       0       0
  8600 ;;      Locals:         2       0       0       0       0       0       0
  8601 ;;      Temps:          0       0       0       0       0       0       0
  8602 ;;      Totals:         6       0       0       0       0       0       0
  8603 ;;Total ram usage:        6 bytes
  8604 ;; Hardware stack levels used:    1
  8605 ;; This function calls:
  8606 ;;		Nothing
  8607 ;; This function is called by:
  8608 ;;		_sprintf
  8609 ;; This function uses a non-reentrant model
  8610 ;;
  8611                           psect	text26,class=CODE,space=0,reloc=2
  8612                           global __ptext26
  8613  00267E                     __ptext26:
  8614                           psect	text26
  8615                           	file	"C:\Program Files\HI-TECH Software\PICC-18\9.80\sources\wmul.c"
  8616                           	line	3
  8617                           	global	__size_of___wmul
  8618  0000                     	__size_of___wmul	equ	__end_of___wmul-___wmul
  8619                           	
  8620  00267E                     ___wmul:
  8621                           	opt	stack 28
  8622  00267E  FFFF               	dw	0FFFFh
  8623                           	line	4
  8624                           	
  8625  002680                     l4139:
  8626  002680  0E00               	movlw	high(0)
  8627  002682  6E06               	movwf	((c:___wmul@product+1)),c
  8628  002684  0E00               	movlw	low(0)
  8629  002686  6E05               	movwf	((c:___wmul@product)),c
  8630  002688  D000               	goto	l4141
  8631                           	line	6
  8632                           	
  8633  00268A                     l819:
  8634                           	line	7
  8635                           	
  8636  00268A                     l4141:
  8637                           	
  8638  00268A  A001               	btfss	((c:___wmul@multiplier)),c,(0)&7
  8639  00268C  D001               	goto	u3091
  8640  00268E  D001               	goto	u3090
  8641  002690                     u3091:
  8642  002690  D005               	goto	l4145
  8643  002692                     u3090:
  8644                           	line	8
  8645                           	
  8646  002692                     l4143:
  8647  002692  5003               	movf	((c:___wmul@multiplicand)),c,w
  8648  002694  2605               	addwf	((c:___wmul@product)),c
  8649  002696  5004               	movf	((c:___wmul@multiplicand+1)),c,w
  8650  002698  2206               	addwfc	((c:___wmul@product+1)),c
  8651                           
  8652  00269A  D000               	goto	l4145
  8653                           	
  8654  00269C                     l820:
  8655                           	line	9
  8656                           	
  8657  00269C                     l4145:
  8658  00269C  90D8               	bcf	status,0
  8659  00269E  3603               	rlcf	((c:___wmul@multiplicand)),c
  8660  0026A0  3604               	rlcf	((c:___wmul@multiplicand+1)),c
  8661                           	line	10
  8662                           	
  8663  0026A2                     l4147:
  8664  0026A2  90D8               	bcf	status,0
  8665  0026A4  3202               	rrcf	((c:___wmul@multiplier+1)),c
  8666  0026A6  3201               	rrcf	((c:___wmul@multiplier)),c
  8667                           	line	11
  8668  0026A8  5002               	movf	((c:___wmul@multiplier+1)),c,w
  8669  0026AA  1001               	iorwf ((c:___wmul@multiplier)),c,w
  8670                           
  8671  0026AC  A4D8               	btfss	status,2
  8672  0026AE  D001               	goto	u3101
  8673  0026B0  D001               	goto	u3100
  8674  0026B2                     u3101:
  8675  0026B2  D7EB               	goto	l4141
  8676  0026B4                     u3100:
  8677                           	
  8678  0026B4                     l821:
  8679                           	line	12
  8680  0026B4  C005  F001         	movff	(c:___wmul@product),(c:?___wmul)
  8681  0026B8  C006  F002         	movff	(c:___wmul@product+1),(c:?___wmul+1)
  8682                           	line	13
  8683                           	
  8684  0026BC                     l822:
  8685  0026BC  0012               	return
  8686  0026BE  FFFF               	dw	0FFFFh; errata NOP
  8687                           	opt stack 0
  8688                           GLOBAL	__end_of___wmul
  8689  0026C0                     	__end_of___wmul:
  8690                           	signat	___wmul,8314
  8691                           	global	___asftadd
  8692                           
  8693 ;; *************** function ___asftadd *****************
  8694 ;; Defined at:
  8695 ;;		line 5 in file "C:\Program Files\HI-TECH Software\PICC-18\9.80\sources\asftadd.c"
  8696 ;; Parameters:    Size  Location     Type
  8697 ;;  f1p             2   63[COMRAM] PTR float 
  8698 ;;		 -> sprintf@fval(3), 
  8699 ;;  f2              3   65[COMRAM] float 
  8700 ;; Auto vars:     Size  Location     Type
  8701 ;;		None
  8702 ;; Return value:  Size  Location     Type
  8703 ;;                  3   63[COMRAM] float 
  8704 ;; Registers used:
  8705 ;;		wreg, fsr2l, fsr2h, status,2, status,0, cstack
  8706 ;; Tracked objects:
  8707 ;;		On entry : 0/0
  8708 ;;		On exit  : 0/0
  8709 ;;		Unchanged: 0/0
  8710 ;; Data sizes:     COMRAM   BANK0   BANK1   BANK2   BANK3   BANK4   BANK5
  8711 ;;      Params:         5       0       0       0       0       0       0
  8712 ;;      Locals:         0       0       0       0       0       0       0
  8713 ;;      Temps:          0       0       0       0       0       0       0
  8714 ;;      Totals:         5       0       0       0       0       0       0
  8715 ;;Total ram usage:        5 bytes
  8716 ;; Hardware stack levels used:    1
  8717 ;; Hardware stack levels required when called:    2
  8718 ;; This function calls:
  8719 ;;		___ftadd
  8720 ;; This function is called by:
  8721 ;;		_sprintf
  8722 ;; This function uses a non-reentrant model
  8723 ;;
  8724                           psect	text27,class=CODE,space=0,reloc=2
  8725                           global __ptext27
  8726  0026C0                     __ptext27:
  8727                           psect	text27
  8728                           	file	"C:\Program Files\HI-TECH Software\PICC-18\9.80\sources\asftadd.c"
  8729                           	line	5
  8730                           	global	__size_of___asftadd
  8731  0000                     	__size_of___asftadd	equ	__end_of___asftadd-___asftadd
  8732                           	
  8733  0026C0                     ___asftadd:
  8734                           	opt	stack 26
  8735  0026C0  FFFF               	dw	0FFFFh
  8736                           	line	6
  8737                           	
  8738  0026C2                     l4585:
  8739                           ;	Return value of ___asftadd is never used
  8740  0026C2  C040  FFD9         	movff	(c:___asftadd@f1p),fsr2l
  8741  0026C6  C041  FFDA         	movff	(c:___asftadd@f1p+1),fsr2h
  8742  0026CA  CFDE F009          	movff	postinc2,(c:?___ftadd)
  8743  0026CE  CFDE F00A          	movff	postinc2,(c:?___ftadd+1)
  8744  0026D2  CFDD F00B          	movff	postdec2,(c:?___ftadd+2)
  8745  0026D6  C042  F00C         	movff	(c:___asftadd@f2),0+((c:?___ftadd)+03h)
  8746  0026DA  C043  F00D         	movff	(c:___asftadd@f2+1),1+((c:?___ftadd)+03h)
  8747  0026DE  C044  F00E         	movff	(c:___asftadd@f2+2),2+((c:?___ftadd)+03h)
  8748  0026E2  ECDA  F00A         	call	___ftadd	;wreg free
  8749  0026E6  C040  FFD9         	movff	(c:___asftadd@f1p),fsr2l
  8750  0026EA  C041  FFDA         	movff	(c:___asftadd@f1p+1),fsr2h
  8751  0026EE  C009  FFDE         	movff	0+?___ftadd,postinc2
  8752  0026F2  C00A  FFDE         	movff	1+?___ftadd,postinc2
  8753  0026F6  C00B  FFDD         	movff	2+?___ftadd,postdec2
  8754  0026FA  52DD               	movf	postdec2
  8755  0026FC  D000               	goto	l847
  8756                           	
  8757  0026FE                     l4587:
  8758                           	line	7
  8759                           	
  8760  0026FE                     l847:
  8761  0026FE  0012               	return
  8762  002700  FFFF               	dw	0FFFFh; errata NOP
  8763                           	opt stack 0
  8764                           GLOBAL	__end_of___asftadd
  8765  002702                     	__end_of___asftadd:
  8766                           	signat	___asftadd,8315
  8767                           	global	___asftmul
  8768                           
  8769 ;; *************** function ___asftmul *****************
  8770 ;; Defined at:
  8771 ;;		line 5 in file "C:\Program Files\HI-TECH Software\PICC-18\9.80\sources\asftmul.c"
  8772 ;; Parameters:    Size  Location     Type
  8773 ;;  f1p             2   48[COMRAM] PTR float 
  8774 ;;		 -> sprintf@integ(3), 
  8775 ;;  f2              3   50[COMRAM] float 
  8776 ;; Auto vars:     Size  Location     Type
  8777 ;;		None
  8778 ;; Return value:  Size  Location     Type
  8779 ;;                  3   48[COMRAM] float 
  8780 ;; Registers used:
  8781 ;;		wreg, fsr2l, fsr2h, status,2, status,0, cstack
  8782 ;; Tracked objects:
  8783 ;;		On entry : 0/0
  8784 ;;		On exit  : 0/0
  8785 ;;		Unchanged: 0/0
  8786 ;; Data sizes:     COMRAM   BANK0   BANK1   BANK2   BANK3   BANK4   BANK5
  8787 ;;      Params:         5       0       0       0       0       0       0
  8788 ;;      Locals:         0       0       0       0       0       0       0
  8789 ;;      Temps:          0       0       0       0       0       0       0
  8790 ;;      Totals:         5       0       0       0       0       0       0
  8791 ;;Total ram usage:        5 bytes
  8792 ;; Hardware stack levels used:    1
  8793 ;; Hardware stack levels required when called:    2
  8794 ;; This function calls:
  8795 ;;		___ftmul
  8796 ;; This function is called by:
  8797 ;;		_sprintf
  8798 ;; This function uses a non-reentrant model
  8799 ;;
  8800                           psect	text28,class=CODE,space=0,reloc=2
  8801                           global __ptext28
  8802  002702                     __ptext28:
  8803                           psect	text28
  8804                           	file	"C:\Program Files\HI-TECH Software\PICC-18\9.80\sources\asftmul.c"
  8805                           	line	5
  8806                           	global	__size_of___asftmul
  8807  0000                     	__size_of___asftmul	equ	__end_of___asftmul-___asftmul
  8808                           	
  8809  002702                     ___asftmul:
  8810                           	opt	stack 26
  8811  002702  FFFF               	dw	0FFFFh
  8812                           	line	6
  8813                           	
  8814  002704                     l4589:
  8815                           ;	Return value of ___asftmul is never used
  8816  002704  C031  FFD9         	movff	(c:___asftmul@f1p),fsr2l
  8817  002708  C032  FFDA         	movff	(c:___asftmul@f1p+1),fsr2h
  8818  00270C  CFDE F020          	movff	postinc2,(c:?___ftmul)
  8819  002710  CFDE F021          	movff	postinc2,(c:?___ftmul+1)
  8820  002714  CFDD F022          	movff	postdec2,(c:?___ftmul+2)
  8821  002718  C033  F023         	movff	(c:___asftmul@f2),0+((c:?___ftmul)+03h)
  8822  00271C  C034  F024         	movff	(c:___asftmul@f2+1),1+((c:?___ftmul)+03h)
  8823  002720  C035  F025         	movff	(c:___asftmul@f2+2),2+((c:?___ftmul)+03h)
  8824  002724  EC6A  F00D         	call	___ftmul	;wreg free
  8825  002728  C031  FFD9         	movff	(c:___asftmul@f1p),fsr2l
  8826  00272C  C032  FFDA         	movff	(c:___asftmul@f1p+1),fsr2h
  8827  002730  C020  FFDE         	movff	0+?___ftmul,postinc2
  8828  002734  C021  FFDE         	movff	1+?___ftmul,postinc2
  8829  002738  C022  FFDD         	movff	2+?___ftmul,postdec2
  8830  00273C  52DD               	movf	postdec2
  8831  00273E  D000               	goto	l857
  8832                           	
  8833  002740                     l4591:
  8834                           	line	7
  8835                           	
  8836  002740                     l857:
  8837  002740  0012               	return
  8838  002742  FFFF               	dw	0FFFFh; errata NOP
  8839                           	opt stack 0
  8840                           GLOBAL	__end_of___asftmul
  8841  002744                     	__end_of___asftmul:
  8842                           	signat	___asftmul,8315
  8843                           	global	___ftmul
  8844                           
  8845 ;; *************** function ___ftmul *****************
  8846 ;; Defined at:
  8847 ;;		line 52 in file "C:\Program Files\HI-TECH Software\PICC-18\9.80\sources\ftmul.c"
  8848 ;; Parameters:    Size  Location     Type
  8849 ;;  f1              3   31[COMRAM] float 
  8850 ;;  f2              3   34[COMRAM] float 
  8851 ;; Auto vars:     Size  Location     Type
  8852 ;;  f3_as_produc    3   43[COMRAM] unsigned um
  8853 ;;  sign            1   47[COMRAM] unsigned char 
  8854 ;;  cntr            1   46[COMRAM] unsigned char 
  8855 ;;  exp             1   42[COMRAM] unsigned char 
  8856 ;; Return value:  Size  Location     Type
  8857 ;;                  3   31[COMRAM] float 
  8858 ;; Registers used:
  8859 ;;		wreg, status,2, status,0, cstack
  8860 ;; Tracked objects:
  8861 ;;		On entry : 0/0
  8862 ;;		On exit  : 0/0
  8863 ;;		Unchanged: 0/0
  8864 ;; Data sizes:     COMRAM   BANK0   BANK1   BANK2   BANK3   BANK4   BANK5
  8865 ;;      Params:         6       0       0       0       0       0       0
  8866 ;;      Locals:         6       0       0       0       0       0       0
  8867 ;;      Temps:          5       0       0       0       0       0       0
  8868 ;;      Totals:        17       0       0       0       0       0       0
  8869 ;;Total ram usage:       17 bytes
  8870 ;; Hardware stack levels used:    1
  8871 ;; Hardware stack levels required when called:    1
  8872 ;; This function calls:
  8873 ;;		___ftpack
  8874 ;; This function is called by:
  8875 ;;		_fround
  8876 ;;		_scale
  8877 ;;		_sprintf
  8878 ;;		___asftmul
  8879 ;; This function uses a non-reentrant model
  8880 ;;
  8881                           psect	text29,class=CODE,space=0,reloc=2
  8882                           global __ptext29
  8883  001AD4                     __ptext29:
  8884                           psect	text29
  8885                           	file	"C:\Program Files\HI-TECH Software\PICC-18\9.80\sources\ftmul.c"
  8886                           	line	52
  8887                           	global	__size_of___ftmul
  8888  0000                     	__size_of___ftmul	equ	__end_of___ftmul-___ftmul
  8889                           	
  8890  001AD4                     ___ftmul:
  8891                           	opt	stack 27
  8892  001AD4  FFFF               	dw	0FFFFh
  8893                           	line	56
  8894                           	
  8895  001AD6                     l4323:
  8896  001AD6  0E0F               	movlw	(0Fh)&0ffh
  8897  001AD8  6E26               	movwf	(??___ftmul+0+0)&0ffh,c
  8898  001ADA  C020  F027         	movff	(c:___ftmul@f1),??___ftmul+1+0
  8899  001ADE  C021  F028         	movff	(c:___ftmul@f1+1),??___ftmul+1+0+1
  8900  001AE2  C022  F029         	movff	(c:___ftmul@f1+2),??___ftmul+1+0+2
  8901  001AE6  2826               	incf	((??___ftmul+0+0)),c,w
  8902  001AE8  6E2A               	movwf	(??___ftmul+4+0)&0ffh,c
  8903  001AEA  D004               	goto	u3410
  8904  001AEC                     u3415:
  8905  001AEC  90D8               	bcf	status,0
  8906  001AEE  3229               	rrcf	(??___ftmul+1+2),c
  8907  001AF0  3228               	rrcf	(??___ftmul+1+1),c
  8908  001AF2  3227               	rrcf	(??___ftmul+1+0),c
  8909  001AF4                     u3410:
  8910  001AF4  2E2A               	decfsz	(??___ftmul+4+0)&0ffh,c
  8911  001AF6  D7FA               	goto	u3415
  8912  001AF8  5027               	movf	(??___ftmul+1+0),c,w
  8913  001AFA  6E2B               	movwf	((c:___ftmul@exp)),c
  8914  001AFC  662B               	tstfsz	((c:___ftmul@exp))&0ffh
  8915  001AFE  D001               	goto	u3421
  8916  001B00  D001               	goto	u3420
  8917  001B02                     u3421:
  8918  001B02  D008               	goto	l4329
  8919  001B04                     u3420:
  8920                           	line	57
  8921                           	
  8922  001B04                     l4325:
  8923  001B04  0E00               	movlw	low(float24(0.0000000000000000))
  8924  001B06  6E20               	movwf	((c:?___ftmul)),c
  8925  001B08  0E00               	movlw	high(float24(0.0000000000000000))
  8926  001B0A  6E21               	movwf	((c:?___ftmul+1)),c
  8927  001B0C  0E00               	movlw	low highword(float24(0.0000000000000000))
  8928  001B0E  6E22               	movwf	((c:?___ftmul+2)),c
  8929                           
  8930  001B10  D080               	goto	l642
  8931                           	
  8932  001B12                     l4327:
  8933  001B12  D07F               	goto	l642
  8934                           	
  8935  001B14                     l641:
  8936                           	line	58
  8937                           	
  8938  001B14                     l4329:
  8939  001B14  0E0F               	movlw	(0Fh)&0ffh
  8940  001B16  6E26               	movwf	(??___ftmul+0+0)&0ffh,c
  8941  001B18  C023  F027         	movff	(c:___ftmul@f2),??___ftmul+1+0
  8942  001B1C  C024  F028         	movff	(c:___ftmul@f2+1),??___ftmul+1+0+1
  8943  001B20  C025  F029         	movff	(c:___ftmul@f2+2),??___ftmul+1+0+2
  8944  001B24  2826               	incf	((??___ftmul+0+0)),c,w
  8945  001B26  6E2A               	movwf	(??___ftmul+4+0)&0ffh,c
  8946  001B28  D004               	goto	u3430
  8947  001B2A                     u3435:
  8948  001B2A  90D8               	bcf	status,0
  8949  001B2C  3229               	rrcf	(??___ftmul+1+2),c
  8950  001B2E  3228               	rrcf	(??___ftmul+1+1),c
  8951  001B30  3227               	rrcf	(??___ftmul+1+0),c
  8952  001B32                     u3430:
  8953  001B32  2E2A               	decfsz	(??___ftmul+4+0)&0ffh,c
  8954  001B34  D7FA               	goto	u3435
  8955  001B36  5027               	movf	(??___ftmul+1+0),c,w
  8956  001B38  6E30               	movwf	((c:___ftmul@sign)),c
  8957  001B3A  6630               	tstfsz	((c:___ftmul@sign))&0ffh
  8958  001B3C  D001               	goto	u3441
  8959  001B3E  D001               	goto	u3440
  8960  001B40                     u3441:
  8961  001B40  D008               	goto	l4335
  8962  001B42                     u3440:
  8963                           	line	59
  8964                           	
  8965  001B42                     l4331:
  8966  001B42  0E00               	movlw	low(float24(0.0000000000000000))
  8967  001B44  6E20               	movwf	((c:?___ftmul)),c
  8968  001B46  0E00               	movlw	high(float24(0.0000000000000000))
  8969  001B48  6E21               	movwf	((c:?___ftmul+1)),c
  8970  001B4A  0E00               	movlw	low highword(float24(0.0000000000000000))
  8971  001B4C  6E22               	movwf	((c:?___ftmul+2)),c
  8972                           
  8973  001B4E  D061               	goto	l642
  8974                           	
  8975  001B50                     l4333:
  8976  001B50  D060               	goto	l642
  8977                           	
  8978  001B52                     l643:
  8979                           	line	60
  8980                           	
  8981  001B52                     l4335:
  8982  001B52  5030               	movf	((c:___ftmul@sign)),c,w
  8983  001B54  0F7B               	addlw	low(07Bh)
  8984  001B56  262B               	addwf	((c:___ftmul@exp)),c
  8985                           	line	61
  8986                           	
  8987  001B58                     l4337:
  8988  001B58  C022  F030         	movff	0+2+(c:___ftmul@f1),(c:___ftmul@sign)
  8989                           	line	62
  8990  001B5C  5025               	movf	(0+2+(c:___ftmul@f2))&0ffh,w
  8991  001B5E  1A30               	xorwf	((c:___ftmul@sign)),c
  8992                           	line	63
  8993  001B60  0E80               	movlw	(080h)&0ffh
  8994  001B62  1630               	andwf	((c:___ftmul@sign)),c
  8995                           	line	64
  8996                           	
  8997  001B64                     l4339:
  8998  001B64  8E21               	bsf	(0+(15/8)+(c:___ftmul@f1)),c,(15)&7
  8999                           	line	66
  9000                           	
  9001  001B66                     l4341:
  9002  001B66  8E24               	bsf	(0+(15/8)+(c:___ftmul@f2)),c,(15)&7
  9003                           	line	67
  9004                           	
  9005  001B68                     l4343:
  9006  001B68  0EFF               	movlw	low(0FFFFh)
  9007  001B6A  1623               	andwf	((c:___ftmul@f2)),c
  9008  001B6C  0EFF               	movlw	high(0FFFFh)
  9009  001B6E  1624               	andwf	((c:___ftmul@f2+1)),c
  9010  001B70  0E00               	movlw	low highword(0FFFFh)
  9011  001B72  1625               	andwf	((c:___ftmul@f2+2)),c
  9012                           
  9013                           	line	68
  9014                           	
  9015  001B74                     l4345:
  9016  001B74  0E00               	movlw	low(0)
  9017  001B76  6E2C               	movwf	((c:___ftmul@f3_as_product)),c
  9018  001B78  0E00               	movlw	high(0)
  9019  001B7A  6E2D               	movwf	((c:___ftmul@f3_as_product+1)),c
  9020  001B7C  0E00               	movlw	low highword(0)
  9021  001B7E  6E2E               	movwf	((c:___ftmul@f3_as_product+2)),c
  9022                           
  9023                           	line	69
  9024                           	
  9025  001B80                     l4347:
  9026  001B80  6E26               	movwf	(??___ftmul+0+0)&0ffh,c
  9027  001B82  0E07               	movlw	low(07h)
  9028  001B84  6E2F               	movwf	((c:___ftmul@cntr)),c
  9029  001B86  5026               	movf	(??___ftmul+0+0)&0ffh,c,w
  9030  001B88  D000               	goto	l4349
  9031                           	line	70
  9032                           	
  9033  001B8A                     l644:
  9034                           	line	71
  9035                           	
  9036  001B8A                     l4349:
  9037                           	
  9038  001B8A  A020               	btfss	((c:___ftmul@f1)),c,(0)&7
  9039  001B8C  D001               	goto	u3451
  9040  001B8E  D001               	goto	u3450
  9041  001B90                     u3451:
  9042  001B90  D007               	goto	l4353
  9043  001B92                     u3450:
  9044                           	line	72
  9045                           	
  9046  001B92                     l4351:
  9047  001B92  5023               	movf	((c:___ftmul@f2)),c,w
  9048  001B94  262C               	addwf	((c:___ftmul@f3_as_product)),c
  9049  001B96  5024               	movf	((c:___ftmul@f2+1)),c,w
  9050  001B98  222D               	addwfc	((c:___ftmul@f3_as_product+1)),c
  9051  001B9A  5025               	movf	((c:___ftmul@f2+2)),c,w
  9052  001B9C  222E               	addwfc	((c:___ftmul@f3_as_product+2)),c
  9053                           
  9054  001B9E  D000               	goto	l4353
  9055                           	
  9056  001BA0                     l645:
  9057                           	line	73
  9058                           	
  9059  001BA0                     l4353:
  9060  001BA0  90D8               	bcf	status,0
  9061  001BA2  3222               	rrcf	((c:___ftmul@f1+2)),c
  9062  001BA4  3221               	rrcf	((c:___ftmul@f1+1)),c
  9063  001BA6  3220               	rrcf	((c:___ftmul@f1)),c
  9064                           	line	74
  9065  001BA8  90D8               	bcf	status,0
  9066  001BAA  3623               	rlcf	((c:___ftmul@f2)),c
  9067  001BAC  3624               	rlcf	((c:___ftmul@f2+1)),c
  9068  001BAE  3625               	rlcf	((c:___ftmul@f2+2)),c
  9069                           	line	75
  9070                           	
  9071  001BB0                     l4355:
  9072  001BB0  2E2F               	decfsz	((c:___ftmul@cntr)),c
  9073                           	
  9074  001BB2  D7EB               	goto	l4349
  9075  001BB4  D000               	goto	l4357
  9076                           	
  9077  001BB6                     l646:
  9078                           	line	76
  9079                           	
  9080  001BB6                     l4357:
  9081  001BB6  6E26               	movwf	(??___ftmul+0+0)&0ffh,c
  9082  001BB8  0E09               	movlw	low(09h)
  9083  001BBA  6E2F               	movwf	((c:___ftmul@cntr)),c
  9084  001BBC  5026               	movf	(??___ftmul+0+0)&0ffh,c,w
  9085  001BBE  D000               	goto	l4359
  9086                           	line	77
  9087                           	
  9088  001BC0                     l647:
  9089                           	line	78
  9090                           	
  9091  001BC0                     l4359:
  9092                           	
  9093  001BC0  A020               	btfss	((c:___ftmul@f1)),c,(0)&7
  9094  001BC2  D001               	goto	u3461
  9095  001BC4  D001               	goto	u3460
  9096  001BC6                     u3461:
  9097  001BC6  D007               	goto	l4363
  9098  001BC8                     u3460:
  9099                           	line	79
  9100                           	
  9101  001BC8                     l4361:
  9102  001BC8  5023               	movf	((c:___ftmul@f2)),c,w
  9103  001BCA  262C               	addwf	((c:___ftmul@f3_as_product)),c
  9104  001BCC  5024               	movf	((c:___ftmul@f2+1)),c,w
  9105  001BCE  222D               	addwfc	((c:___ftmul@f3_as_product+1)),c
  9106  001BD0  5025               	movf	((c:___ftmul@f2+2)),c,w
  9107  001BD2  222E               	addwfc	((c:___ftmul@f3_as_product+2)),c
  9108                           
  9109  001BD4  D000               	goto	l4363
  9110                           	
  9111  001BD6                     l648:
  9112                           	line	80
  9113                           	
  9114  001BD6                     l4363:
  9115  001BD6  90D8               	bcf	status,0
  9116  001BD8  3222               	rrcf	((c:___ftmul@f1+2)),c
  9117  001BDA  3221               	rrcf	((c:___ftmul@f1+1)),c
  9118  001BDC  3220               	rrcf	((c:___ftmul@f1)),c
  9119                           	line	81
  9120  001BDE  90D8               	bcf	status,0
  9121  001BE0  322E               	rrcf	((c:___ftmul@f3_as_product+2)),c
  9122  001BE2  322D               	rrcf	((c:___ftmul@f3_as_product+1)),c
  9123  001BE4  322C               	rrcf	((c:___ftmul@f3_as_product)),c
  9124                           	line	82
  9125                           	
  9126  001BE6                     l4365:
  9127  001BE6  2E2F               	decfsz	((c:___ftmul@cntr)),c
  9128                           	
  9129  001BE8  D7EB               	goto	l4359
  9130  001BEA  D000               	goto	l4367
  9131                           	
  9132  001BEC                     l649:
  9133                           	line	83
  9134                           	
  9135  001BEC                     l4367:
  9136  001BEC  C02C  F001         	movff	(c:___ftmul@f3_as_product),(c:?___ftpack)
  9137  001BF0  C02D  F002         	movff	(c:___ftmul@f3_as_product+1),(c:?___ftpack+1)
  9138  001BF4  C02E  F003         	movff	(c:___ftmul@f3_as_product+2),(c:?___ftpack+2)
  9139  001BF8  C02B  F004         	movff	(c:___ftmul@exp),0+((c:?___ftpack)+03h)
  9140  001BFC  C030  F005         	movff	(c:___ftmul@sign),0+((c:?___ftpack)+04h)
  9141  001C00  ECA7  F00F         	call	___ftpack	;wreg free
  9142  001C04  C001  F020         	movff	0+?___ftpack,(c:?___ftmul)
  9143  001C08  C002  F021         	movff	1+?___ftpack,(c:?___ftmul+1)
  9144  001C0C  C003  F022         	movff	2+?___ftpack,(c:?___ftmul+2)
  9145  001C10  D000               	goto	l642
  9146                           	
  9147  001C12                     l4369:
  9148                           	line	84
  9149                           	
  9150  001C12                     l642:
  9151  001C12  0012               	return
  9152  001C14  FFFF               	dw	0FFFFh; errata NOP
  9153                           	opt stack 0
  9154                           GLOBAL	__end_of___ftmul
  9155  001C16                     	__end_of___ftmul:
  9156                           	signat	___ftmul,8315
  9157                           	global	___ftpack
  9158                           
  9159 ;; *************** function ___ftpack *****************
  9160 ;; Defined at:
  9161 ;;		line 63 in file "C:\Program Files\HI-TECH Software\PICC-18\9.80\sources\float.c"
  9162 ;; Parameters:    Size  Location     Type
  9163 ;;  arg             3    0[COMRAM] unsigned um
  9164 ;;  exp             1    3[COMRAM] unsigned char 
  9165 ;;  sign            1    4[COMRAM] unsigned char 
  9166 ;; Auto vars:     Size  Location     Type
  9167 ;;		None
  9168 ;; Return value:  Size  Location     Type
  9169 ;;                  3    0[COMRAM] float 
  9170 ;; Registers used:
  9171 ;;		wreg, status,2, status,0
  9172 ;; Tracked objects:
  9173 ;;		On entry : 0/0
  9174 ;;		On exit  : 0/0
  9175 ;;		Unchanged: 0/0
  9176 ;; Data sizes:     COMRAM   BANK0   BANK1   BANK2   BANK3   BANK4   BANK5
  9177 ;;      Params:         5       0       0       0       0       0       0
  9178 ;;      Locals:         0       0       0       0       0       0       0
  9179 ;;      Temps:          3       0       0       0       0       0       0
  9180 ;;      Totals:         8       0       0       0       0       0       0
  9181 ;;Total ram usage:        8 bytes
  9182 ;; Hardware stack levels used:    1
  9183 ;; This function calls:
  9184 ;;		Nothing
  9185 ;; This function is called by:
  9186 ;;		___ftadd
  9187 ;;		___ftmul
  9188 ;;		___lltoft
  9189 ;;		___abtoft
  9190 ;;		___altoft
  9191 ;;		___attoft
  9192 ;;		___awtoft
  9193 ;;		___ftdiv
  9194 ;;		___lbtoft
  9195 ;;		___lttoft
  9196 ;;		___lwtoft
  9197 ;; This function uses a non-reentrant model
  9198 ;;
  9199                           psect	text30,class=CODE,space=0,reloc=2
  9200                           global __ptext30
  9201  001F4E                     __ptext30:
  9202                           psect	text30
  9203                           	file	"C:\Program Files\HI-TECH Software\PICC-18\9.80\sources\float.c"
  9204                           	line	63
  9205                           	global	__size_of___ftpack
  9206  0000                     	__size_of___ftpack	equ	__end_of___ftpack-___ftpack
  9207                           	
  9208  001F4E                     ___ftpack:
  9209                           	opt	stack 27
  9210  001F4E  FFFF               	dw	0FFFFh
  9211                           	line	64
  9212                           	
  9213  001F50                     l3929:
  9214  001F50  5004               	movf	((c:___ftpack@exp)),c,w
  9215  001F52  B4D8               	btfsc	status,2
  9216  001F54  D001               	goto	u2801
  9217  001F56  D001               	goto	u2800
  9218  001F58                     u2801:
  9219  001F58  D008               	goto	l3933
  9220  001F5A                     u2800:
  9221                           	
  9222  001F5A                     l3931:
  9223  001F5A  5001               	movf	((c:___ftpack@arg)),c,w
  9224  001F5C  1002               	iorwf	((c:___ftpack@arg+1)),c,w
  9225  001F5E  1003               	iorwf	((c:___ftpack@arg+2)),c,w
  9226  001F60  A4D8               	btfss	status,2
  9227  001F62  D001               	goto	u2811
  9228  001F64  D001               	goto	u2810
  9229  001F66                     u2811:
  9230  001F66  D010               	goto	l3939
  9231  001F68                     u2810:
  9232  001F68  D000               	goto	l3933
  9233                           	
  9234  001F6A                     l540:
  9235                           	line	65
  9236                           	
  9237  001F6A                     l3933:
  9238  001F6A  0E00               	movlw	low(float24(0.0000000000000000))
  9239  001F6C  6E01               	movwf	((c:?___ftpack)),c
  9240  001F6E  0E00               	movlw	high(float24(0.0000000000000000))
  9241  001F70  6E02               	movwf	((c:?___ftpack+1)),c
  9242  001F72  0E00               	movlw	low highword(float24(0.0000000000000000))
  9243  001F74  6E03               	movwf	((c:?___ftpack+2)),c
  9244                           
  9245  001F76  D062               	goto	l541
  9246                           	
  9247  001F78                     l3935:
  9248  001F78  D061               	goto	l541
  9249                           	
  9250  001F7A                     l538:
  9251                           	line	66
  9252  001F7A  D006               	goto	l3939
  9253                           	
  9254  001F7C                     l543:
  9255                           	line	67
  9256                           	
  9257  001F7C                     l3937:
  9258  001F7C  2A04               	incf	((c:___ftpack@exp)),c
  9259                           	line	68
  9260  001F7E  90D8               	bcf	status,0
  9261  001F80  3203               	rrcf	((c:___ftpack@arg+2)),c
  9262  001F82  3202               	rrcf	((c:___ftpack@arg+1)),c
  9263  001F84  3201               	rrcf	((c:___ftpack@arg)),c
  9264  001F86  D000               	goto	l3939
  9265                           	line	69
  9266                           	
  9267  001F88                     l542:
  9268                           	line	66
  9269                           	
  9270  001F88                     l3939:
  9271  001F88  0E00               	movlw	low(0FE0000h)
  9272  001F8A  1401               	andwf	((c:___ftpack@arg)),c,w
  9273  001F8C  6E06               	movwf	(??___ftpack+0+0)&0ffh,c
  9274  001F8E  0E00               	movlw	0
  9275  001F90  1402               	andwf	((c:___ftpack@arg+1)),c,w
  9276  001F92  6E07               	movwf	1+(??___ftpack+0+0)&0ffh,c
  9277  001F94  0EFE               	movlw	0FEh
  9278  001F96  1403               	andwf	((c:___ftpack@arg+2)),c,w
  9279  001F98  6E08               	movwf	2+(??___ftpack+0+0)&0ffh,c
  9280                           
  9281  001F9A  5006               	movf	(??___ftpack+0+0),c,w
  9282  001F9C  1007               	iorwf	(??___ftpack+0+1),c,w
  9283  001F9E  1008               	iorwf	(??___ftpack+0+2),c,w
  9284  001FA0  A4D8               	btfss	status,2
  9285  001FA2  D001               	goto	u2821
  9286  001FA4  D001               	goto	u2820
  9287  001FA6                     u2821:
  9288  001FA6  D7EA               	goto	l3937
  9289  001FA8                     u2820:
  9290  001FA8  D00D               	goto	l3945
  9291                           	
  9292  001FAA                     l544:
  9293                           	line	70
  9294  001FAA  D00C               	goto	l3945
  9295                           	
  9296  001FAC                     l546:
  9297                           	line	71
  9298                           	
  9299  001FAC                     l3941:
  9300  001FAC  2A04               	incf	((c:___ftpack@exp)),c
  9301                           	line	72
  9302                           	
  9303  001FAE                     l3943:
  9304  001FAE  0E01               	movlw	low(01h)
  9305  001FB0  2601               	addwf	((c:___ftpack@arg)),c
  9306  001FB2  0E00               	movlw	high(01h)
  9307  001FB4  2202               	addwfc	((c:___ftpack@arg+1)),c
  9308  001FB6  0E00               	movlw	low highword(01h)
  9309  001FB8  2203               	addwfc	((c:___ftpack@arg+2)),c
  9310                           
  9311                           	line	73
  9312  001FBA  90D8               	bcf	status,0
  9313  001FBC  3203               	rrcf	((c:___ftpack@arg+2)),c
  9314  001FBE  3202               	rrcf	((c:___ftpack@arg+1)),c
  9315  001FC0  3201               	rrcf	((c:___ftpack@arg)),c
  9316  001FC2  D000               	goto	l3945
  9317                           	line	74
  9318                           	
  9319  001FC4                     l545:
  9320                           	line	70
  9321                           	
  9322  001FC4                     l3945:
  9323  001FC4  0E00               	movlw	low(0FF0000h)
  9324  001FC6  1401               	andwf	((c:___ftpack@arg)),c,w
  9325  001FC8  6E06               	movwf	(??___ftpack+0+0)&0ffh,c
  9326  001FCA  0E00               	movlw	0
  9327  001FCC  1402               	andwf	((c:___ftpack@arg+1)),c,w
  9328  001FCE  6E07               	movwf	1+(??___ftpack+0+0)&0ffh,c
  9329  001FD0  0EFF               	movlw	0FFh
  9330  001FD2  1403               	andwf	((c:___ftpack@arg+2)),c,w
  9331  001FD4  6E08               	movwf	2+(??___ftpack+0+0)&0ffh,c
  9332                           
  9333  001FD6  5006               	movf	(??___ftpack+0+0),c,w
  9334  001FD8  1007               	iorwf	(??___ftpack+0+1),c,w
  9335  001FDA  1008               	iorwf	(??___ftpack+0+2),c,w
  9336  001FDC  A4D8               	btfss	status,2
  9337  001FDE  D001               	goto	u2831
  9338  001FE0  D001               	goto	u2830
  9339  001FE2                     u2831:
  9340  001FE2  D7E4               	goto	l3941
  9341  001FE4                     u2830:
  9342  001FE4  D007               	goto	l3949
  9343                           	
  9344  001FE6                     l547:
  9345                           	line	75
  9346  001FE6  D006               	goto	l3949
  9347                           	
  9348  001FE8                     l549:
  9349                           	line	76
  9350                           	
  9351  001FE8                     l3947:
  9352  001FE8  0604               	decf	((c:___ftpack@exp)),c
  9353                           	line	77
  9354  001FEA  90D8               	bcf	status,0
  9355  001FEC  3601               	rlcf	((c:___ftpack@arg)),c
  9356  001FEE  3602               	rlcf	((c:___ftpack@arg+1)),c
  9357  001FF0  3603               	rlcf	((c:___ftpack@arg+2)),c
  9358  001FF2  D000               	goto	l3949
  9359                           	line	78
  9360                           	
  9361  001FF4                     l548:
  9362                           	line	75
  9363                           	
  9364  001FF4                     l3949:
  9365                           	
  9366  001FF4  AE02               	btfss	((c:___ftpack@arg+1)),c,(15)&7
  9367  001FF6  D001               	goto	u2841
  9368  001FF8  D001               	goto	u2840
  9369  001FFA                     u2841:
  9370  001FFA  D7F6               	goto	l3947
  9371  001FFC                     u2840:
  9372                           	
  9373  001FFC                     l550:
  9374                           	line	79
  9375                           	
  9376  001FFC  B004               	btfsc	((c:___ftpack@exp)),c,(0)&7
  9377  001FFE  D001               	goto	u2851
  9378  002000  D001               	goto	u2850
  9379  002002                     u2851:
  9380  002002  D002               	goto	l3953
  9381  002004                     u2850:
  9382                           	line	80
  9383                           	
  9384  002004                     l3951:
  9385  002004  9E02               	bcf	(0+(15/8)+(c:___ftpack@arg)),c,(15)&7
  9386  002006  D000               	goto	l3953
  9387                           	
  9388  002008                     l551:
  9389                           	line	81
  9390                           	
  9391  002008                     l3953:
  9392  002008  90D8               	bcf status,0
  9393  00200A  3204               	rrcf	((c:___ftpack@exp)),c
  9394                           
  9395                           	line	82
  9396  00200C  5004               	movf	((c:___ftpack@exp)),c,w
  9397  00200E  6E08               	movwf	(??___ftpack+0+0+2)&0ffh,c
  9398  002010  6A07               	clrf	(??___ftpack+0+0+1)&0ffh,c
  9399  002012  6A06               	clrf	(??___ftpack+0+0)&0ffh,c
  9400  002014  5006               	movf	(??___ftpack+0+0),c,w
  9401  002016  1201               	iorwf	((c:___ftpack@arg)),c
  9402  002018  5007               	movf	(??___ftpack+0+1),c,w
  9403  00201A  1202               	iorwf	((c:___ftpack@arg+1)),c
  9404  00201C  5008               	movf	(??___ftpack+0+2),c,w
  9405  00201E  1203               	iorwf	((c:___ftpack@arg+2)),c
  9406                           
  9407                           	line	83
  9408                           	
  9409  002020                     l3955:
  9410  002020  5005               	movf	((c:___ftpack@sign)),c,w
  9411  002022  B4D8               	btfsc	status,2
  9412  002024  D001               	goto	u2861
  9413  002026  D001               	goto	u2860
  9414  002028                     u2861:
  9415  002028  D002               	goto	l3959
  9416  00202A                     u2860:
  9417                           	line	84
  9418                           	
  9419  00202A                     l3957:
  9420  00202A  8E03               	bsf	(0+(23/8)+(c:___ftpack@arg)),c,(23)&7
  9421  00202C  D000               	goto	l3959
  9422                           	
  9423  00202E                     l552:
  9424                           	line	85
  9425                           	
  9426  00202E                     l3959:
  9427  00202E  C001  F001         	movff	(c:___ftpack@arg),(c:?___ftpack)
  9428  002032  C002  F002         	movff	(c:___ftpack@arg+1),(c:?___ftpack+1)
  9429  002036  C003  F003         	movff	(c:___ftpack@arg+2),(c:?___ftpack+2)
  9430  00203A  D000               	goto	l541
  9431                           	
  9432  00203C                     l3961:
  9433                           	line	86
  9434                           	
  9435  00203C                     l541:
  9436  00203C  0012               	return
  9437  00203E  FFFF               	dw	0FFFFh; errata NOP
  9438                           	opt stack 0
  9439                           GLOBAL	__end_of___ftpack
  9440  002040                     	__end_of___ftpack:
  9441                           	signat	___ftpack,12411
  9442                           	global	___asftsub
  9443                           
  9444 ;; *************** function ___asftsub *****************
  9445 ;; Defined at:
  9446 ;;		line 5 in file "C:\Program Files\HI-TECH Software\PICC-18\9.80\sources\asftsub.c"
  9447 ;; Parameters:    Size  Location     Type
  9448 ;;  f1p             2   28[COMRAM] PTR float 
  9449 ;;		 -> sprintf@fval(3), 
  9450 ;;  f2              3   30[COMRAM] float 
  9451 ;; Auto vars:     Size  Location     Type
  9452 ;;		None
  9453 ;; Return value:  Size  Location     Type
  9454 ;;                  3   28[COMRAM] float 
  9455 ;; Registers used:
  9456 ;;		wreg, fsr2l, fsr2h, status,2, status,0, cstack
  9457 ;; Tracked objects:
  9458 ;;		On entry : 0/0
  9459 ;;		On exit  : 0/0
  9460 ;;		Unchanged: 0/0
  9461 ;; Data sizes:     COMRAM   BANK0   BANK1   BANK2   BANK3   BANK4   BANK5
  9462 ;;      Params:         5       0       0       0       0       0       0
  9463 ;;      Locals:         0       0       0       0       0       0       0
  9464 ;;      Temps:          0       0       0       0       0       0       0
  9465 ;;      Totals:         5       0       0       0       0       0       0
  9466 ;;Total ram usage:        5 bytes
  9467 ;; Hardware stack levels used:    1
  9468 ;; Hardware stack levels required when called:    3
  9469 ;; This function calls:
  9470 ;;		___ftsub
  9471 ;; This function is called by:
  9472 ;;		_sprintf
  9473 ;; This function uses a non-reentrant model
  9474 ;;
  9475                           psect	text31,class=CODE,space=0,reloc=2
  9476                           global __ptext31
  9477  00263C                     __ptext31:
  9478                           psect	text31
  9479                           	file	"C:\Program Files\HI-TECH Software\PICC-18\9.80\sources\asftsub.c"
  9480                           	line	5
  9481                           	global	__size_of___asftsub
  9482  0000                     	__size_of___asftsub	equ	__end_of___asftsub-___asftsub
  9483                           	
  9484  00263C                     ___asftsub:
  9485                           	opt	stack 25
  9486  00263C  FFFF               	dw	0FFFFh
  9487                           	line	6
  9488                           	
  9489  00263E                     l4595:
  9490                           ;	Return value of ___asftsub is never used
  9491  00263E  C01D  FFD9         	movff	(c:___asftsub@f1p),fsr2l
  9492  002642  C01E  FFDA         	movff	(c:___asftsub@f1p+1),fsr2h
  9493  002646  CFDE F017          	movff	postinc2,(c:?___ftsub)
  9494  00264A  CFDE F018          	movff	postinc2,(c:?___ftsub+1)
  9495  00264E  CFDD F019          	movff	postdec2,(c:?___ftsub+2)
  9496  002652  C01F  F01A         	movff	(c:___asftsub@f2),0+((c:?___ftsub)+03h)
  9497  002656  C020  F01B         	movff	(c:___asftsub@f2+1),1+((c:?___ftsub)+03h)
  9498  00265A  C021  F01C         	movff	(c:___asftsub@f2+2),2+((c:?___ftsub)+03h)
  9499  00265E  ECC1  F013         	call	___ftsub	;wreg free
  9500  002662  C01D  FFD9         	movff	(c:___asftsub@f1p),fsr2l
  9501  002666  C01E  FFDA         	movff	(c:___asftsub@f1p+1),fsr2h
  9502  00266A  C017  FFDE         	movff	0+?___ftsub,postinc2
  9503  00266E  C018  FFDE         	movff	1+?___ftsub,postinc2
  9504  002672  C019  FFDD         	movff	2+?___ftsub,postdec2
  9505  002676  52DD               	movf	postdec2
  9506  002678  D000               	goto	l862
  9507                           	
  9508  00267A                     l4597:
  9509                           	line	7
  9510                           	
  9511  00267A                     l862:
  9512  00267A  0012               	return
  9513  00267C  FFFF               	dw	0FFFFh; errata NOP
  9514                           	opt stack 0
  9515                           GLOBAL	__end_of___asftsub
  9516  00267E                     	__end_of___asftsub:
  9517                           	signat	___asftsub,8315
  9518                           	global	___ftsub
  9519                           
  9520 ;; *************** function ___ftsub *****************
  9521 ;; Defined at:
  9522 ;;		line 22 in file "C:\Program Files\HI-TECH Software\PICC-18\9.80\sources\ftsub.c"
  9523 ;; Parameters:    Size  Location     Type
  9524 ;;  f1              3   22[COMRAM] float 
  9525 ;;  f2              3   25[COMRAM] float 
  9526 ;; Auto vars:     Size  Location     Type
  9527 ;;		None
  9528 ;; Return value:  Size  Location     Type
  9529 ;;                  3   22[COMRAM] float 
  9530 ;; Registers used:
  9531 ;;		wreg, status,2, status,0, cstack
  9532 ;; Tracked objects:
  9533 ;;		On entry : 0/0
  9534 ;;		On exit  : 0/0
  9535 ;;		Unchanged: 0/0
  9536 ;; Data sizes:     COMRAM   BANK0   BANK1   BANK2   BANK3   BANK4   BANK5
  9537 ;;      Params:         6       0       0       0       0       0       0
  9538 ;;      Locals:         0       0       0       0       0       0       0
  9539 ;;      Temps:          0       0       0       0       0       0       0
  9540 ;;      Totals:         6       0       0       0       0       0       0
  9541 ;;Total ram usage:        6 bytes
  9542 ;; Hardware stack levels used:    1
  9543 ;; Hardware stack levels required when called:    2
  9544 ;; This function calls:
  9545 ;;		___ftadd
  9546 ;; This function is called by:
  9547 ;;		___asftsub
  9548 ;; This function uses a non-reentrant model
  9549 ;;
  9550                           psect	text32,class=CODE,space=0,reloc=2
  9551                           global __ptext32
  9552  002782                     __ptext32:
  9553                           psect	text32
  9554                           	file	"C:\Program Files\HI-TECH Software\PICC-18\9.80\sources\ftsub.c"
  9555                           	line	22
  9556                           	global	__size_of___ftsub
  9557  0000                     	__size_of___ftsub	equ	__end_of___ftsub-___ftsub
  9558                           	
  9559  002782                     ___ftsub:
  9560                           	opt	stack 25
  9561  002782  FFFF               	dw	0FFFFh
  9562                           	line	23
  9563                           	
  9564  002784                     l4579:
  9565  002784  0E00               	movlw	low(0800000h)
  9566  002786  1A1A               	xorwf	((c:___ftsub@f2)),c
  9567  002788  0E00               	movlw	high(0800000h)
  9568  00278A  1A1B               	xorwf	((c:___ftsub@f2+1)),c
  9569  00278C  0E80               	movlw	low highword(0800000h)
  9570  00278E  1A1C               	xorwf	((c:___ftsub@f2+2)),c
  9571                           
  9572                           	line	24
  9573                           	
  9574  002790                     l4581:
  9575  002790  C017  F009         	movff	(c:___ftsub@f1),(c:?___ftadd)
  9576  002794  C018  F00A         	movff	(c:___ftsub@f1+1),(c:?___ftadd+1)
  9577  002798  C019  F00B         	movff	(c:___ftsub@f1+2),(c:?___ftadd+2)
  9578  00279C  C01A  F00C         	movff	(c:___ftsub@f2),0+((c:?___ftadd)+03h)
  9579  0027A0  C01B  F00D         	movff	(c:___ftsub@f2+1),1+((c:?___ftadd)+03h)
  9580  0027A4  C01C  F00E         	movff	(c:___ftsub@f2+2),2+((c:?___ftadd)+03h)
  9581  0027A8  ECDA  F00A         	call	___ftadd	;wreg free
  9582  0027AC  C009  F017         	movff	0+?___ftadd,(c:?___ftsub)
  9583  0027B0  C00A  F018         	movff	1+?___ftadd,(c:?___ftsub+1)
  9584  0027B4  C00B  F019         	movff	2+?___ftadd,(c:?___ftsub+2)
  9585  0027B8  D000               	goto	l658
  9586                           	
  9587  0027BA                     l4583:
  9588                           	line	25
  9589                           	
  9590  0027BA                     l658:
  9591  0027BA  0012               	return
  9592  0027BC  FFFF               	dw	0FFFFh; errata NOP
  9593                           	opt stack 0
  9594                           GLOBAL	__end_of___ftsub
  9595  0027BE                     	__end_of___ftsub:
  9596                           	signat	___ftsub,8315
  9597                           	global	___ftadd
  9598                           
  9599 ;; *************** function ___ftadd *****************
  9600 ;; Defined at:
  9601 ;;		line 87 in file "C:\Program Files\HI-TECH Software\PICC-18\9.80\sources\ftadd.c"
  9602 ;; Parameters:    Size  Location     Type
  9603 ;;  f1              3    8[COMRAM] float 
  9604 ;;  f2              3   11[COMRAM] float 
  9605 ;; Auto vars:     Size  Location     Type
  9606 ;;  exp1            1   21[COMRAM] unsigned char 
  9607 ;;  exp2            1   20[COMRAM] unsigned char 
  9608 ;;  sign            1   19[COMRAM] unsigned char 
  9609 ;; Return value:  Size  Location     Type
  9610 ;;                  3    8[COMRAM] float 
  9611 ;; Registers used:
  9612 ;;		wreg, status,2, status,0, cstack
  9613 ;; Tracked objects:
  9614 ;;		On entry : 0/0
  9615 ;;		On exit  : 0/0
  9616 ;;		Unchanged: 0/0
  9617 ;; Data sizes:     COMRAM   BANK0   BANK1   BANK2   BANK3   BANK4   BANK5
  9618 ;;      Params:         6       0       0       0       0       0       0
  9619 ;;      Locals:         3       0       0       0       0       0       0
  9620 ;;      Temps:          5       0       0       0       0       0       0
  9621 ;;      Totals:        14       0       0       0       0       0       0
  9622 ;;Total ram usage:       14 bytes
  9623 ;; Hardware stack levels used:    1
  9624 ;; Hardware stack levels required when called:    1
  9625 ;; This function calls:
  9626 ;;		___ftpack
  9627 ;; This function is called by:
  9628 ;;		___ftsub
  9629 ;;		___asftadd
  9630 ;; This function uses a non-reentrant model
  9631 ;;
  9632                           psect	text33,class=CODE,space=0,reloc=2
  9633                           global __ptext33
  9634  0015B4                     __ptext33:
  9635                           psect	text33
  9636                           	file	"C:\Program Files\HI-TECH Software\PICC-18\9.80\sources\ftadd.c"
  9637                           	line	87
  9638                           	global	__size_of___ftadd
  9639  0000                     	__size_of___ftadd	equ	__end_of___ftadd-___ftadd
  9640                           	
  9641  0015B4                     ___ftadd:
  9642                           	opt	stack 25
  9643  0015B4  FFFF               	dw	0FFFFh
  9644                           	line	90
  9645                           	
  9646  0015B6                     l4253:
  9647  0015B6  0E0F               	movlw	(0Fh)&0ffh
  9648  0015B8  6E0F               	movwf	(??___ftadd+0+0)&0ffh,c
  9649  0015BA  C009  F010         	movff	(c:___ftadd@f1),??___ftadd+1+0
  9650  0015BE  C00A  F011         	movff	(c:___ftadd@f1+1),??___ftadd+1+0+1
  9651  0015C2  C00B  F012         	movff	(c:___ftadd@f1+2),??___ftadd+1+0+2
  9652  0015C6  280F               	incf	((??___ftadd+0+0)),c,w
  9653  0015C8  6E13               	movwf	(??___ftadd+4+0)&0ffh,c
  9654  0015CA  D004               	goto	u3200
  9655  0015CC                     u3205:
  9656  0015CC  90D8               	bcf	status,0
  9657  0015CE  3212               	rrcf	(??___ftadd+1+2),c
  9658  0015D0  3211               	rrcf	(??___ftadd+1+1),c
  9659  0015D2  3210               	rrcf	(??___ftadd+1+0),c
  9660  0015D4                     u3200:
  9661  0015D4  2E13               	decfsz	(??___ftadd+4+0)&0ffh,c
  9662  0015D6  D7FA               	goto	u3205
  9663  0015D8  5010               	movf	(??___ftadd+1+0),c,w
  9664  0015DA  6E16               	movwf	((c:___ftadd@exp1)),c
  9665                           	line	91
  9666  0015DC  0E0F               	movlw	(0Fh)&0ffh
  9667  0015DE  6E0F               	movwf	(??___ftadd+0+0)&0ffh,c
  9668  0015E0  C00C  F010         	movff	(c:___ftadd@f2),??___ftadd+1+0
  9669  0015E4  C00D  F011         	movff	(c:___ftadd@f2+1),??___ftadd+1+0+1
  9670  0015E8  C00E  F012         	movff	(c:___ftadd@f2+2),??___ftadd+1+0+2
  9671  0015EC  280F               	incf	((??___ftadd+0+0)),c,w
  9672  0015EE  6E13               	movwf	(??___ftadd+4+0)&0ffh,c
  9673  0015F0  D004               	goto	u3210
  9674  0015F2                     u3215:
  9675  0015F2  90D8               	bcf	status,0
  9676  0015F4  3212               	rrcf	(??___ftadd+1+2),c
  9677  0015F6  3211               	rrcf	(??___ftadd+1+1),c
  9678  0015F8  3210               	rrcf	(??___ftadd+1+0),c
  9679  0015FA                     u3210:
  9680  0015FA  2E13               	decfsz	(??___ftadd+4+0)&0ffh,c
  9681  0015FC  D7FA               	goto	u3215
  9682  0015FE  5010               	movf	(??___ftadd+1+0),c,w
  9683  001600  6E15               	movwf	((c:___ftadd@exp2)),c
  9684                           	line	92
  9685                           	
  9686  001602                     l4255:
  9687  001602  5016               	movf	((c:___ftadd@exp1)),c,w
  9688  001604  B4D8               	btfsc	status,2
  9689  001606  D001               	goto	u3221
  9690  001608  D001               	goto	u3220
  9691  00160A                     u3221:
  9692  00160A  D00F               	goto	l578
  9693  00160C                     u3220:
  9694                           	
  9695  00160C                     l4257:
  9696  00160C  5015               	movf	((c:___ftadd@exp2)),c,w
  9697  00160E  6016               	cpfslt	((c:___ftadd@exp1)),c
  9698  001610  D001               	goto	u3231
  9699  001612  D001               	goto	u3230
  9700  001614                     u3231:
  9701  001614  D011               	goto	l4261
  9702  001616                     u3230:
  9703                           	
  9704  001616                     l4259:
  9705  001616  5016               	movf	((c:___ftadd@exp1)),c,w
  9706  001618  0800               	sublw	0
  9707  00161A  2415               	addwf	((c:___ftadd@exp2)),c,w
  9708  00161C  6E0F               	movwf	(??___ftadd+0+0)&0ffh,c
  9709  00161E  0E19               	movlw	(019h)&0ffh
  9710  001620  5C0F               	subwf	((??___ftadd+0+0)),c,w
  9711  001622  A0D8               	btfss	status,0
  9712  001624  D001               	goto	u3241
  9713  001626  D001               	goto	u3240
  9714  001628                     u3241:
  9715  001628  D007               	goto	l4261
  9716  00162A                     u3240:
  9717                           	
  9718  00162A                     l578:
  9719                           	line	93
  9720  00162A  C00C  F009         	movff	(c:___ftadd@f2),(c:?___ftadd)
  9721  00162E  C00D  F00A         	movff	(c:___ftadd@f2+1),(c:?___ftadd+1)
  9722  001632  C00E  F00B         	movff	(c:___ftadd@f2+2),(c:?___ftadd+2)
  9723  001636  D0DB               	goto	l579
  9724                           	
  9725  001638                     l576:
  9726                           	line	94
  9727                           	
  9728  001638                     l4261:
  9729  001638  5015               	movf	((c:___ftadd@exp2)),c,w
  9730  00163A  B4D8               	btfsc	status,2
  9731  00163C  D001               	goto	u3251
  9732  00163E  D001               	goto	u3250
  9733  001640                     u3251:
  9734  001640  D00F               	goto	l582
  9735  001642                     u3250:
  9736                           	
  9737  001642                     l4263:
  9738  001642  5016               	movf	((c:___ftadd@exp1)),c,w
  9739  001644  6015               	cpfslt	((c:___ftadd@exp2)),c
  9740  001646  D001               	goto	u3261
  9741  001648  D001               	goto	u3260
  9742  00164A                     u3261:
  9743  00164A  D011               	goto	l4267
  9744  00164C                     u3260:
  9745                           	
  9746  00164C                     l4265:
  9747  00164C  5015               	movf	((c:___ftadd@exp2)),c,w
  9748  00164E  0800               	sublw	0
  9749  001650  2416               	addwf	((c:___ftadd@exp1)),c,w
  9750  001652  6E0F               	movwf	(??___ftadd+0+0)&0ffh,c
  9751  001654  0E19               	movlw	(019h)&0ffh
  9752  001656  5C0F               	subwf	((??___ftadd+0+0)),c,w
  9753  001658  A0D8               	btfss	status,0
  9754  00165A  D001               	goto	u3271
  9755  00165C  D001               	goto	u3270
  9756  00165E                     u3271:
  9757  00165E  D007               	goto	l4267
  9758  001660                     u3270:
  9759                           	
  9760  001660                     l582:
  9761                           	line	95
  9762  001660  C009  F009         	movff	(c:___ftadd@f1),(c:?___ftadd)
  9763  001664  C00A  F00A         	movff	(c:___ftadd@f1+1),(c:?___ftadd+1)
  9764  001668  C00B  F00B         	movff	(c:___ftadd@f1+2),(c:?___ftadd+2)
  9765  00166C  D0C0               	goto	l579
  9766                           	
  9767  00166E                     l580:
  9768                           	line	96
  9769                           	
  9770  00166E                     l4267:
  9771  00166E  6E0F               	movwf	(??___ftadd+0+0)&0ffh,c
  9772  001670  0E06               	movlw	low(06h)
  9773  001672  6E14               	movwf	((c:___ftadd@sign)),c
  9774  001674  500F               	movf	(??___ftadd+0+0)&0ffh,c,w
  9775                           	line	97
  9776                           	
  9777  001676                     l4269:
  9778                           	
  9779  001676  AE0B               	btfss	((c:___ftadd@f1+2)),c,(23)&7
  9780  001678  D001               	goto	u3281
  9781  00167A  D001               	goto	u3280
  9782  00167C                     u3281:
  9783  00167C  D002               	goto	l4273
  9784  00167E                     u3280:
  9785                           	line	98
  9786                           	
  9787  00167E                     l4271:
  9788  00167E  8E14               	bsf	(0+(7/8)+(c:___ftadd@sign)),c,(7)&7
  9789  001680  D000               	goto	l4273
  9790                           	
  9791  001682                     l583:
  9792                           	line	99
  9793                           	
  9794  001682                     l4273:
  9795                           	
  9796  001682  AE0E               	btfss	((c:___ftadd@f2+2)),c,(23)&7
  9797  001684  D001               	goto	u3291
  9798  001686  D001               	goto	u3290
  9799  001688                     u3291:
  9800  001688  D001               	goto	l584
  9801  00168A                     u3290:
  9802                           	line	100
  9803                           	
  9804  00168A                     l4275:
  9805  00168A  8C14               	bsf	(0+(6/8)+(c:___ftadd@sign)),c,(6)&7
  9806                           	
  9807  00168C                     l584:
  9808                           	line	101
  9809  00168C  8E0A               	bsf	(0+(15/8)+(c:___ftadd@f1)),c,(15)&7
  9810                           	line	102
  9811                           	
  9812  00168E                     l4277:
  9813  00168E  0EFF               	movlw	low(0FFFFh)
  9814  001690  1609               	andwf	((c:___ftadd@f1)),c
  9815  001692  0EFF               	movlw	high(0FFFFh)
  9816  001694  160A               	andwf	((c:___ftadd@f1+1)),c
  9817  001696  0E00               	movlw	low highword(0FFFFh)
  9818  001698  160B               	andwf	((c:___ftadd@f1+2)),c
  9819                           
  9820                           	line	103
  9821  00169A  8E0D               	bsf	(0+(15/8)+(c:___ftadd@f2)),c,(15)&7
  9822                           	line	104
  9823                           	
  9824  00169C                     l4279:
  9825  00169C  0EFF               	movlw	low(0FFFFh)
  9826  00169E  160C               	andwf	((c:___ftadd@f2)),c
  9827  0016A0  0EFF               	movlw	high(0FFFFh)
  9828  0016A2  160D               	andwf	((c:___ftadd@f2+1)),c
  9829  0016A4  0E00               	movlw	low highword(0FFFFh)
  9830  0016A6  160E               	andwf	((c:___ftadd@f2+2)),c
  9831                           
  9832                           	line	106
  9833                           	
  9834  0016A8                     l4281:
  9835  0016A8  5015               	movf	((c:___ftadd@exp2)),c,w
  9836  0016AA  6016               	cpfslt	((c:___ftadd@exp1)),c
  9837  0016AC  D001               	goto	u3301
  9838  0016AE  D001               	goto	u3300
  9839  0016B0                     u3301:
  9840  0016B0  D023               	goto	l4293
  9841  0016B2                     u3300:
  9842  0016B2  D000               	goto	l4283
  9843                           	line	109
  9844                           	
  9845  0016B4                     l586:
  9846                           	line	110
  9847                           	
  9848  0016B4                     l4283:
  9849  0016B4  90D8               	bcf	status,0
  9850  0016B6  360C               	rlcf	((c:___ftadd@f2)),c
  9851  0016B8  360D               	rlcf	((c:___ftadd@f2+1)),c
  9852  0016BA  360E               	rlcf	((c:___ftadd@f2+2)),c
  9853                           	line	111
  9854  0016BC  0615               	decf	((c:___ftadd@exp2)),c
  9855                           	line	112
  9856                           	
  9857  0016BE                     l4285:
  9858  0016BE  5015               	movf	((c:___ftadd@exp2)),c,w
  9859  0016C0  1816               	xorwf	((c:___ftadd@exp1)),c,w
  9860  0016C2  B4D8               	btfsc	status,2
  9861  0016C4  D001               	goto	u3311
  9862  0016C6  D001               	goto	u3310
  9863  0016C8                     u3311:
  9864  0016C8  D010               	goto	l4291
  9865  0016CA                     u3310:
  9866                           	
  9867  0016CA                     l4287:
  9868  0016CA  0614               	decf	((c:___ftadd@sign)),c
  9869  0016CC  5014               	movf	((c:___ftadd@sign))&0ffh,w
  9870  0016CE  0B07               	andlw	low(07h)
  9871  0016D0  A4D8               	btfss	status,2
  9872  0016D2  D001               	goto	u3321
  9873  0016D4  D001               	goto	u3320
  9874  0016D6                     u3321:
  9875  0016D6  D7EE               	goto	l4283
  9876  0016D8                     u3320:
  9877  0016D8  D008               	goto	l4291
  9878                           	
  9879  0016DA                     l588:
  9880  0016DA  D007               	goto	l4291
  9881                           	
  9882  0016DC                     l589:
  9883                           	line	113
  9884  0016DC  D006               	goto	l4291
  9885                           	
  9886  0016DE                     l591:
  9887                           	line	114
  9888                           	
  9889  0016DE                     l4289:
  9890  0016DE  90D8               	bcf	status,0
  9891  0016E0  320B               	rrcf	((c:___ftadd@f1+2)),c
  9892  0016E2  320A               	rrcf	((c:___ftadd@f1+1)),c
  9893  0016E4  3209               	rrcf	((c:___ftadd@f1)),c
  9894                           	line	115
  9895  0016E6  2A16               	incf	((c:___ftadd@exp1)),c
  9896  0016E8  D000               	goto	l4291
  9897                           	line	116
  9898                           	
  9899  0016EA                     l590:
  9900                           	line	113
  9901                           	
  9902  0016EA                     l4291:
  9903  0016EA  5015               	movf	((c:___ftadd@exp2)),c,w
  9904  0016EC  6216               	cpfseq	((c:___ftadd@exp1)),c
  9905  0016EE  D001               	goto	u3331
  9906  0016F0  D001               	goto	u3330
  9907  0016F2                     u3331:
  9908  0016F2  D7F5               	goto	l4289
  9909  0016F4                     u3330:
  9910  0016F4  D029               	goto	l593
  9911                           	
  9912  0016F6                     l592:
  9913                           	line	117
  9914  0016F6  D028               	goto	l593
  9915                           	
  9916  0016F8                     l585:
  9917                           	
  9918  0016F8                     l4293:
  9919  0016F8  5016               	movf	((c:___ftadd@exp1)),c,w
  9920  0016FA  6015               	cpfslt	((c:___ftadd@exp2)),c
  9921  0016FC  D001               	goto	u3341
  9922  0016FE  D001               	goto	u3340
  9923  001700                     u3341:
  9924  001700  D023               	goto	l593
  9925  001702                     u3340:
  9926  001702  D000               	goto	l4295
  9927                           	line	120
  9928                           	
  9929  001704                     l595:
  9930                           	line	121
  9931                           	
  9932  001704                     l4295:
  9933  001704  90D8               	bcf	status,0
  9934  001706  3609               	rlcf	((c:___ftadd@f1)),c
  9935  001708  360A               	rlcf	((c:___ftadd@f1+1)),c
  9936  00170A  360B               	rlcf	((c:___ftadd@f1+2)),c
  9937                           	line	122
  9938  00170C  0616               	decf	((c:___ftadd@exp1)),c
  9939                           	line	123
  9940                           	
  9941  00170E                     l4297:
  9942  00170E  5015               	movf	((c:___ftadd@exp2)),c,w
  9943  001710  1816               	xorwf	((c:___ftadd@exp1)),c,w
  9944  001712  B4D8               	btfsc	status,2
  9945  001714  D001               	goto	u3351
  9946  001716  D001               	goto	u3350
  9947  001718                     u3351:
  9948  001718  D010               	goto	l4303
  9949  00171A                     u3350:
  9950                           	
  9951  00171A                     l4299:
  9952  00171A  0614               	decf	((c:___ftadd@sign)),c
  9953  00171C  5014               	movf	((c:___ftadd@sign))&0ffh,w
  9954  00171E  0B07               	andlw	low(07h)
  9955  001720  A4D8               	btfss	status,2
  9956  001722  D001               	goto	u3361
  9957  001724  D001               	goto	u3360
  9958  001726                     u3361:
  9959  001726  D7EE               	goto	l4295
  9960  001728                     u3360:
  9961  001728  D008               	goto	l4303
  9962                           	
  9963  00172A                     l597:
  9964  00172A  D007               	goto	l4303
  9965                           	
  9966  00172C                     l598:
  9967                           	line	124
  9968  00172C  D006               	goto	l4303
  9969                           	
  9970  00172E                     l600:
  9971                           	line	125
  9972                           	
  9973  00172E                     l4301:
  9974  00172E  90D8               	bcf	status,0
  9975  001730  320E               	rrcf	((c:___ftadd@f2+2)),c
  9976  001732  320D               	rrcf	((c:___ftadd@f2+1)),c
  9977  001734  320C               	rrcf	((c:___ftadd@f2)),c
  9978                           	line	126
  9979  001736  2A15               	incf	((c:___ftadd@exp2)),c
  9980  001738  D000               	goto	l4303
  9981                           	line	127
  9982                           	
  9983  00173A                     l599:
  9984                           	line	124
  9985                           	
  9986  00173A                     l4303:
  9987  00173A  5015               	movf	((c:___ftadd@exp2)),c,w
  9988  00173C  6216               	cpfseq	((c:___ftadd@exp1)),c
  9989  00173E  D001               	goto	u3371
  9990  001740  D001               	goto	u3370
  9991  001742                     u3371:
  9992  001742  D7F5               	goto	l4301
  9993  001744                     u3370:
  9994  001744  D001               	goto	l593
  9995                           	
  9996  001746                     l601:
  9997  001746  D000               	goto	l593
  9998                           	line	128
  9999                           	
 10000  001748                     l594:
 10001                           	line	129
 10002                           	
 10003  001748                     l593:
 10004                           	
 10005  001748  AE14               	btfss	((c:___ftadd@sign)),c,(7)&7
 10006  00174A  D001               	goto	u3381
 10007  00174C  D001               	goto	u3380
 10008  00174E                     u3381:
 10009  00174E  D00C               	goto	l602
 10010  001750                     u3380:
 10011                           	line	131
 10012                           	
 10013  001750                     l4305:
 10014  001750  0EFF               	movlw	low(0FFFFFFh)
 10015  001752  1A09               	xorwf	((c:___ftadd@f1)),c
 10016  001754  0EFF               	movlw	high(0FFFFFFh)
 10017  001756  1A0A               	xorwf	((c:___ftadd@f1+1)),c
 10018  001758  0EFF               	movlw	low highword(0FFFFFFh)
 10019  00175A  1A0B               	xorwf	((c:___ftadd@f1+2)),c
 10020                           
 10021                           	line	132
 10022  00175C  0E01               	movlw	low(01h)
 10023  00175E  2609               	addwf	((c:___ftadd@f1)),c
 10024  001760  0E00               	movlw	high(01h)
 10025  001762  220A               	addwfc	((c:___ftadd@f1+1)),c
 10026  001764  0E00               	movlw	low highword(01h)
 10027  001766  220B               	addwfc	((c:___ftadd@f1+2)),c
 10028                           
 10029                           	line	133
 10030                           	
 10031  001768                     l602:
 10032                           	line	134
 10033                           	
 10034  001768  AC14               	btfss	((c:___ftadd@sign)),c,(6)&7
 10035  00176A  D001               	goto	u3391
 10036  00176C  D001               	goto	u3390
 10037  00176E                     u3391:
 10038  00176E  D00D               	goto	l4309
 10039  001770                     u3390:
 10040                           	line	136
 10041                           	
 10042  001770                     l4307:
 10043  001770  0EFF               	movlw	low(0FFFFFFh)
 10044  001772  1A0C               	xorwf	((c:___ftadd@f2)),c
 10045  001774  0EFF               	movlw	high(0FFFFFFh)
 10046  001776  1A0D               	xorwf	((c:___ftadd@f2+1)),c
 10047  001778  0EFF               	movlw	low highword(0FFFFFFh)
 10048  00177A  1A0E               	xorwf	((c:___ftadd@f2+2)),c
 10049                           
 10050                           	line	137
 10051  00177C  0E01               	movlw	low(01h)
 10052  00177E  260C               	addwf	((c:___ftadd@f2)),c
 10053  001780  0E00               	movlw	high(01h)
 10054  001782  220D               	addwfc	((c:___ftadd@f2+1)),c
 10055  001784  0E00               	movlw	low highword(01h)
 10056  001786  220E               	addwfc	((c:___ftadd@f2+2)),c
 10057                           
 10058  001788  D000               	goto	l4309
 10059                           	line	138
 10060                           	
 10061  00178A                     l603:
 10062                           	line	139
 10063                           	
 10064  00178A                     l4309:
 10065  00178A  6E0F               	movwf	(??___ftadd+0+0)&0ffh,c
 10066  00178C  0E00               	movlw	low(0)
 10067  00178E  6E14               	movwf	((c:___ftadd@sign)),c
 10068  001790  500F               	movf	(??___ftadd+0+0)&0ffh,c,w
 10069                           	line	140
 10070                           	
 10071  001792                     l4311:
 10072  001792  5009               	movf	((c:___ftadd@f1)),c,w
 10073  001794  260C               	addwf	((c:___ftadd@f2)),c
 10074  001796  500A               	movf	((c:___ftadd@f1+1)),c,w
 10075  001798  220D               	addwfc	((c:___ftadd@f2+1)),c
 10076  00179A  500B               	movf	((c:___ftadd@f1+2)),c,w
 10077  00179C  220E               	addwfc	((c:___ftadd@f2+2)),c
 10078                           
 10079                           	line	141
 10080                           	
 10081  00179E                     l4313:
 10082                           	
 10083  00179E  AE0E               	btfss	((c:___ftadd@f2+2)),c,(23)&7
 10084  0017A0  D001               	goto	u3401
 10085  0017A2  D001               	goto	u3400
 10086  0017A4                     u3401:
 10087  0017A4  D011               	goto	l4319
 10088  0017A6                     u3400:
 10089                           	line	142
 10090                           	
 10091  0017A6                     l4315:
 10092  0017A6  0EFF               	movlw	low(0FFFFFFh)
 10093  0017A8  1A0C               	xorwf	((c:___ftadd@f2)),c
 10094  0017AA  0EFF               	movlw	high(0FFFFFFh)
 10095  0017AC  1A0D               	xorwf	((c:___ftadd@f2+1)),c
 10096  0017AE  0EFF               	movlw	low highword(0FFFFFFh)
 10097  0017B0  1A0E               	xorwf	((c:___ftadd@f2+2)),c
 10098                           
 10099                           	line	143
 10100  0017B2  0E01               	movlw	low(01h)
 10101  0017B4  260C               	addwf	((c:___ftadd@f2)),c
 10102  0017B6  0E00               	movlw	high(01h)
 10103  0017B8  220D               	addwfc	((c:___ftadd@f2+1)),c
 10104  0017BA  0E00               	movlw	low highword(01h)
 10105  0017BC  220E               	addwfc	((c:___ftadd@f2+2)),c
 10106                           
 10107                           	line	144
 10108                           	
 10109  0017BE                     l4317:
 10110  0017BE  6E0F               	movwf	(??___ftadd+0+0)&0ffh,c
 10111  0017C0  0E01               	movlw	low(01h)
 10112  0017C2  6E14               	movwf	((c:___ftadd@sign)),c
 10113  0017C4  500F               	movf	(??___ftadd+0+0)&0ffh,c,w
 10114  0017C6  D000               	goto	l4319
 10115                           	line	145
 10116                           	
 10117  0017C8                     l604:
 10118                           	line	146
 10119                           	
 10120  0017C8                     l4319:
 10121  0017C8  C00C  F001         	movff	(c:___ftadd@f2),(c:?___ftpack)
 10122  0017CC  C00D  F002         	movff	(c:___ftadd@f2+1),(c:?___ftpack+1)
 10123  0017D0  C00E  F003         	movff	(c:___ftadd@f2+2),(c:?___ftpack+2)
 10124  0017D4  C016  F004         	movff	(c:___ftadd@exp1),0+((c:?___ftpack)+03h)
 10125  0017D8  C014  F005         	movff	(c:___ftadd@sign),0+((c:?___ftpack)+04h)
 10126  0017DC  ECA7  F00F         	call	___ftpack	;wreg free
 10127  0017E0  C001  F009         	movff	0+?___ftpack,(c:?___ftadd)
 10128  0017E4  C002  F00A         	movff	1+?___ftpack,(c:?___ftadd+1)
 10129  0017E8  C003  F00B         	movff	2+?___ftpack,(c:?___ftadd+2)
 10130  0017EC  D000               	goto	l579
 10131                           	
 10132  0017EE                     l4321:
 10133                           	line	148
 10134                           	
 10135  0017EE                     l579:
 10136  0017EE  0012               	return
 10137  0017F0  FFFF               	dw	0FFFFh; errata NOP
 10138                           	opt stack 0
 10139                           GLOBAL	__end_of___ftadd
 10140  0017F2                     	__end_of___ftadd:
 10141                           	signat	___ftadd,8315
 10142                           psect	smallconst
 10143  000686  00                 	db 0	; dummy byte at the end
 10144                           	global	__smallconst
 10145                           	global	__mediumconst
 10146                           	GLOBAL	__activetblptr
 10147  0000                     __activetblptr	EQU	2
 10148                           	psect	intsave_regs,class=BIGRAM,space=1
 10149                           	PSECT	rparam,class=COMRAM,space=1
 10150                           	GLOBAL	__Lrparam
 10151                           	FNCONF	rparam,??,?
 10152                           GLOBAL	__Lparam, __Hparam
 10153                           GLOBAL	__Lrparam, __Hrparam
 10154  0000                     __Lparam	EQU	__Lrparam
 10155  0000                     __Hparam	EQU	__Hrparam


Data Sizes:
    Strings     16
    Constant    118
    Data        0
    BSS         15
    Persistent  0
    Stack       0

Auto Spaces:
    Space          Size  Autos    Used
    COMRAM          127    117     118
    BANK0           128     27      42
    BANK1           256      0       0
    BANK2           256      0       0
    BANK3           256      0       0
    BANK4           256      0       0
    BANK5           256      0       0

Pointer List with Targets:

    ?___ftsub	float  size(2) Largest target is 0

    ?___ftadd	float  size(2) Largest target is 0

    ?___ftpack	float  size(2) Largest target is 0

    ?___llmod	unsigned long  size(2) Largest target is 0

    ?___lldiv	unsigned long  size(2) Largest target is 0

    ?___asftsub	float  size(2) Largest target is 0

    ?___lltoft	float  size(2) Largest target is 0

    ?__tdiv_to_l_	unsigned long  size(2) Largest target is 0

    ?__div_to_l_	unsigned long  size(2) Largest target is 0

    ?___fttol	long  size(2) Largest target is 0

    ?___asftadd	float  size(2) Largest target is 0

    ?___asftmul	float  size(2) Largest target is 0

    ?___ftneg	float  size(2) Largest target is 0

    ?_scale	float  size(2) Largest target is 0

    ?_fround	float  size(2) Largest target is 0

    ?___ftmul	float  size(2) Largest target is 0

    ?___awdiv	int  size(2) Largest target is 0

    ?___wmul	unsigned int  size(2) Largest target is 0

    ?___awmod	int  size(2) Largest target is 0

    ?_strcat	PTR unsigned char  size(2) Largest target is 15
		 -> lcd_putsTwoint@crgValue(BANK0[15]), 

    __asftsub@f1p	PTR float  size(2) Largest target is 3
		 -> sprintf@fval(COMRAM[3]), 

    __asftmul@f1p	PTR float  size(2) Largest target is 3
		 -> sprintf@integ(COMRAM[3]), 

    __asftadd@f1p	PTR float  size(2) Largest target is 3
		 -> sprintf@fval(COMRAM[3]), 

    strcat@from	PTR const unsigned char  size(2) Largest target is 5
		 -> STR_6(CODE[4]), STR_5(CODE[2]), STR_4(CODE[4]), lcd_putsTwoint@crgSecondValue(BANK0[5]), 
		 -> lcd_putsTwoint@crgFirstValue(BANK0[5]), 

    strcat@to	PTR unsigned char  size(2) Largest target is 15
		 -> lcd_putsTwoint@crgValue(BANK0[15]), 

    strcat@cp	PTR unsigned char  size(2) Largest target is 15
		 -> lcd_putsTwoint@crgValue(BANK0[15]), 

    sprintf@f	PTR const unsigned char  size(2) Largest target is 3
		 -> STR_7(CODE[3]), STR_3(CODE[3]), STR_2(CODE[3]), STR_1(CODE[3]), 

    sprintf@sp	PTR unsigned char  size(2) Largest target is 15
		 -> lcd_putsfloat@crgValue(COMRAM[15]), lcd_putsTwoint@crgSecondValue(BANK0[5]), lcd_putsTwoint@crgFirstValue(BANK0[5]), lcd_putsint@crgValue(COMRAM[15]), 

    ?_sprintf	int  size(2) Largest target is 0

    sprintf@ap	PTR void [1] size(2) Largest target is 2
		 -> ?_sprintf(COMRAM[2]), 

    S333$_cp	PTR const unsigned char  size(2) Largest target is 0

    _val._str._cp	PTR const unsigned char  size(2) Largest target is 0

    sp__strcat	PTR unsigned char  size(2) Largest target is 15
		 -> lcd_putsTwoint@crgValue(BANK0[15]), 

    lcd_putsTwoint@cptrValue	PTR unsigned char  size(2) Largest target is 15
		 -> lcd_putsTwoint@crgValue(BANK0[15]), NULL(NULL[0]), 

    lcd_puts@s	PTR const unsigned char  size(2) Largest target is 15
		 -> lcd_putsfloat@crgValue(COMRAM[15]), lcd_putsTwoint@crgValue(BANK0[15]), lcd_putsint@crgValue(COMRAM[15]), NULL(NULL[0]), 


Critical Paths under _main in COMRAM

    _main->_lcd_putsTwoint
    _WaitinMilliseconds->_DelayMs
    _LcdInitialize_Settings->_lcd_init
    _lcd_init->_lcd_cmd
    _lcd_cmd->_DelayMs
    _lcd_putsTwoint->_sprintf
    _lcd_puts->_lcd_data
    _lcd_data->_DelayMs
    _sprintf->___asftadd
    _fround->___ftmul
    _scale->___ftmul
    ___awdiv->___awmod
    ___fttol->___awdiv
    ___llmod->___lldiv
    ___lltoft->___ftpack
    ___asftadd->_fround
    ___asftmul->___ftmul
    ___ftmul->___fttol
    ___asftsub->___ftsub
    ___ftsub->___ftadd
    ___ftadd->___ftpack

Critical Paths under _main in BANK0

    _main->_lcd_putsTwoint

Critical Paths under _main in BANK1

    None.

Critical Paths under _main in BANK2

    None.

Critical Paths under _main in BANK3

    None.

Critical Paths under _main in BANK4

    None.

Critical Paths under _main in BANK5

    None.

Call Graph Tables:

 ---------------------------------------------------------------------------------
 (Depth) Function   	        Calls       Base Space   Used Autos Params    Refs
 ---------------------------------------------------------------------------------
 (0) _main                                                 5     5      0   11909
                                            112 COMRAM     5     5      0
               _MotorDriver_Settings
            _Analog2Digital_Settings
             _LcdInitialize_Settings
                     _lcd_putsTwoint
                 _WaitinMilliseconds
                            _lcd_cmd
 ---------------------------------------------------------------------------------
 (1) _WaitinMilliseconds                                   3     1      2      92
                                              4 COMRAM     3     1      2
                            _DelayMs
 ---------------------------------------------------------------------------------
 (1) _MotorDriver_Settings                                 0     0      0       0
 ---------------------------------------------------------------------------------
 (1) _LcdInitialize_Settings                               1     1      0     483
                                             10 COMRAM     1     1      0
                 _WaitinMicroseconds
                           _lcd_init
                            _lcd_cmd
 ---------------------------------------------------------------------------------
 (2) _WaitinMicroseconds                                   4     2      2      30
                                              0 COMRAM     4     2      2
 ---------------------------------------------------------------------------------
 (2) _lcd_init                                             4     3      1     318
                                              6 COMRAM     4     3      1
                            _DelayMs
                            _lcd_cmd
 ---------------------------------------------------------------------------------
 (1) _lcd_cmd                                              2     1      1     135
                                              4 COMRAM     2     1      1
                            _DelayMs
 ---------------------------------------------------------------------------------
 (1) _Analog2Digital_Settings                              0     0      0       0
 ---------------------------------------------------------------------------------
 (1) _lcd_putsTwoint                                      31    27      4   11063
                                            108 COMRAM     4     0      4
                                              0 BANK0     27    27      0
                            _sprintf
                             _strcat
                           _lcd_puts
 ---------------------------------------------------------------------------------
 (2) _lcd_puts                                             2     0      2     180
                                              6 COMRAM     2     0      2
                           _lcd_data
 ---------------------------------------------------------------------------------
 (3) _lcd_data                                             2     1      1     135
                                              4 COMRAM     2     1      1
                            _DelayMs
 ---------------------------------------------------------------------------------
 (2) _DelayMs                                              4     3      1      69
                                              0 COMRAM     4     3      1
 ---------------------------------------------------------------------------------
 (2) _sprintf                                             46    39      7   10451
                                             68 COMRAM    40    33      7
                            ___ftneg
                             ___wmul
                            ___awdiv
                              _scale
                          ___asftmul
                             ___ftge
                             _fround
                          ___asftadd
                            ___fttol
                         __div_to_l_
                        __tdiv_to_l_
                           ___lltoft
                          ___asftsub
                            ___lldiv
                            ___llmod
                            ___ftmul
 ---------------------------------------------------------------------------------
 (2) _strcat                                               8     4      4      96
                                              0 COMRAM     8     4      4
 ---------------------------------------------------------------------------------
 (3) _fround                                              18    15      3    1422
                                             48 COMRAM    15    12      3
                            ___awmod
                            ___awdiv
                            ___ftmul
 ---------------------------------------------------------------------------------
 (3) _scale                                               15    12      3    1620
                                             48 COMRAM    12     9      3
                            ___awmod
                            ___awdiv
                            ___ftmul
                            ___fttol (ARG)
 ---------------------------------------------------------------------------------
 (3) __tdiv_to_l_                                         17    11      6     303
                                              0 COMRAM    17    11      6
 ---------------------------------------------------------------------------------
 (3) __div_to_l_                                          13     7      6     446
                                              0 COMRAM    13     7      6
 ---------------------------------------------------------------------------------
 (4) ___awdiv                                              9     5      4     300
                                              7 COMRAM     9     5      4
                            ___awmod (ARG)
 ---------------------------------------------------------------------------------
 (4) ___awmod                                              7     3      4     296
                                              0 COMRAM     7     3      4
 ---------------------------------------------------------------------------------
 (3) ___ftge                                               9     3      6     136
                                              0 COMRAM     9     3      6
 ---------------------------------------------------------------------------------
 (3) ___ftneg                                              3     0      3      45
                                              0 COMRAM     3     0      3
 ---------------------------------------------------------------------------------
 (3) ___fttol                                             15    11      4     252
                                             16 COMRAM    15    11      4
                           ___ftpack (ARG)
                            ___awmod (ARG)
                            ___awdiv (ARG)
 ---------------------------------------------------------------------------------
 (3) ___lldiv                                             14     6      8     162
                                              0 COMRAM    14     6      8
 ---------------------------------------------------------------------------------
 (3) ___llmod                                             10     2      8     159
                                             14 COMRAM    10     2      8
                            ___lldiv (ARG)
 ---------------------------------------------------------------------------------
 (3) ___lltoft                                             9     5      4     278
                                              8 COMRAM     9     5      4
                           ___ftpack
 ---------------------------------------------------------------------------------
 (3) ___wmul                                               6     2      4      92
                                              0 COMRAM     6     2      4
 ---------------------------------------------------------------------------------
 (3) ___asftadd                                            5     0      5    1115
                                             63 COMRAM     5     0      5
                            ___ftadd
                             _fround (ARG)
 ---------------------------------------------------------------------------------
 (3) ___asftmul                                            5     0      5     601
                                             48 COMRAM     5     0      5
                            ___ftmul
 ---------------------------------------------------------------------------------
 (3) ___ftmul                                             17    11      6     535
                                             31 COMRAM    17    11      6
                           ___ftpack
                            ___fttol (ARG)
                            ___awdiv (ARG)
                            ___awmod (ARG)
 ---------------------------------------------------------------------------------
 (4) ___ftpack                                             8     3      5     209
                                              0 COMRAM     8     3      5
 ---------------------------------------------------------------------------------
 (3) ___asftsub                                            5     0      5    1160
                                             28 COMRAM     5     0      5
                            ___ftsub
                           ___lltoft (ARG)
 ---------------------------------------------------------------------------------
 (4) ___ftsub                                              6     0      6    1094
                                             22 COMRAM     6     0      6
                            ___ftadd
 ---------------------------------------------------------------------------------
 (5) ___ftadd                                             14     8      6    1049
                                              8 COMRAM    14     8      6
                           ___ftpack
 ---------------------------------------------------------------------------------
 Estimated maximum stack depth 5
 ---------------------------------------------------------------------------------

 Call Graph Graphs:

 _main (ROOT)
   _MotorDriver_Settings
   _Analog2Digital_Settings
   _LcdInitialize_Settings
     _WaitinMicroseconds
     _lcd_init
       _DelayMs
       _lcd_cmd
         _DelayMs
     _lcd_cmd
       _DelayMs
   _lcd_putsTwoint
     _sprintf
       ___ftneg
       ___wmul
       ___awdiv
         ___awmod (ARG)
       _scale
         ___awmod
         ___awdiv
           ___awmod (ARG)
         ___ftmul
           ___ftpack
           ___fttol (ARG)
             ___ftpack (ARG)
             ___awmod (ARG)
             ___awdiv (ARG)
               ___awmod (ARG)
           ___awdiv (ARG)
             ___awmod (ARG)
           ___awmod (ARG)
         ___fttol (ARG)
           ___ftpack (ARG)
           ___awmod (ARG)
           ___awdiv (ARG)
             ___awmod (ARG)
       ___asftmul
         ___ftmul
           ___ftpack
           ___fttol (ARG)
             ___ftpack (ARG)
             ___awmod (ARG)
             ___awdiv (ARG)
               ___awmod (ARG)
           ___awdiv (ARG)
             ___awmod (ARG)
           ___awmod (ARG)
       ___ftge
       _fround
         ___awmod
         ___awdiv
           ___awmod (ARG)
         ___ftmul
           ___ftpack
           ___fttol (ARG)
             ___ftpack (ARG)
             ___awmod (ARG)
             ___awdiv (ARG)
               ___awmod (ARG)
           ___awdiv (ARG)
             ___awmod (ARG)
           ___awmod (ARG)
       ___asftadd
         ___ftadd
           ___ftpack
         _fround (ARG)
           ___awmod
           ___awdiv
             ___awmod (ARG)
           ___ftmul
             ___ftpack
             ___fttol (ARG)
               ___ftpack (ARG)
               ___awmod (ARG)
               ___awdiv (ARG)
                 ___awmod (ARG)
             ___awdiv (ARG)
               ___awmod (ARG)
             ___awmod (ARG)
       ___fttol
         ___ftpack (ARG)
         ___awmod (ARG)
         ___awdiv (ARG)
           ___awmod (ARG)
       __div_to_l_
       __tdiv_to_l_
       ___lltoft
         ___ftpack
       ___asftsub
         ___ftsub
           ___ftadd
             ___ftpack
         ___lltoft (ARG)
           ___ftpack
       ___lldiv
       ___llmod
         ___lldiv (ARG)
       ___ftmul
         ___ftpack
         ___fttol (ARG)
           ___ftpack (ARG)
           ___awmod (ARG)
           ___awdiv (ARG)
             ___awmod (ARG)
         ___awdiv (ARG)
           ___awmod (ARG)
         ___awmod (ARG)
     _strcat
     _lcd_puts
       _lcd_data
         _DelayMs
   _WaitinMilliseconds
     _DelayMs
   _lcd_cmd
     _DelayMs

 Address spaces:
Name               Size   Autos  Total    Cost      Usage
BIGRAM             5FF      0       0      17        0.0%
EEDATA             100      0       0       0        0.0%
BITBANK5           100      0       0      16        0.0%
BANK5              100      0       0      14        0.0%
BITBANK4           100      0       0      12        0.0%
BANK4              100      0       0      13        0.0%
BITBANK3           100      0       0      10        0.0%
BANK3              100      0       0      11        0.0%
BITBANK2           100      0       0       8        0.0%
BANK2              100      0       0       9        0.0%
BITBANK1           100      0       0       6        0.0%
BANK1              100      0       0       7        0.0%
BITBANK0            80      0       0       4        0.0%
BANK0               80     1B      2A       5       32.8%
BITCOMRAM           7F      0       1       0        0.8%
COMRAM              7F     75      76       1       92.9%
BITSFR               0      0       0      40        0.0%
SFR                  0      0       0      40        0.0%
STACK                0      0       6       2        0.0%
NULL                 0      0       0       0        0.0%
ABS                  0      0      A0      15        0.0%
DATA                 0      0      A6       3        0.0%
CODE                 0      0       0       0        0.0%


HI-TECH Software PICC-18 Macro Assembler V9.80 build 11162 
Symbol Table                                                                                   Sun Sep 29 19:40:26 2013

                    ___asftadd@f2 0042                     ___asftadd@f1p 0040  
                              l70 277E                                l71 277E  
                              l63 2750                                l64 2748  
                              l65 275E                                l66 2768  
                              l90 28A4                                l74 2860  
                              l67 2772                                l75 2858  
                              l68 2778                                l76 286E  
                              l93 28D2                                l69 2774  
                              l77 287A                                l87 27F0  
                              l96 2060                                l97 206C  
                              l98 206C                                l99 2074  
                              u10 275C                                u11 275A  
                    ___awdiv@sign 000E                       __CFG_BOR$ON 000000  
             ___wmul@multiplicand 0003                      ___asftmul@f2 0033  
                    __CFG_CP0$OFF 000000                      ___asftsub@f2 001F  
                    __CFG_CP1$OFF 000000                      __CFG_CP2$OFF 000000  
                    __CFG_CP3$OFF 000000                       __CFG_OSC$HS 000000  
                    ___ftadd@exp1 0016                      ___ftadd@exp2 0015  
                    ___ftadd@sign 0014                               l100 20BE  
                             l101 20C2                               l102 20CE  
                             l111 25E0                               l103 20CE  
                             l120 25DE                               l112 25A4  
                             l104 20D6                               l121 25EE  
                             l113 25D0                               l105 2120  
                             l210 1334                               l202 1488  
                             l122 25EE                               l114 25AE  
                             l106 2126                               l211 10D6  
                             l203 15B0                               l115 25B8  
                             l107 2128                               l212 10D4  
                             l204 155E                               l220 06B4  
                             l116 25C2                               l108 2128  
                             l213 1244                               l205 155C  
                             l221 06CE                               l117 25C8  
                             l214 12FE                               l230 076A  
                             l222 06BE                               l118 25C4  
                             l150 2638                               l215 12FC  
                             l223 0EC8                               l231 088E  
                             l119 25CE                               l151 2638  
                             l400 2198                               l208 110E  
                             l240 094C                               l232 0806  
                             l224 06C2                               l160 27F8  
                             l401 219A                               l209 101C  
                             l241 0956                               l233 0860  
                             l225 06FE                               l161 2822  
                             l410 2276                               l402 21BC  
                             l218 0EA6                               l250 0ACA  
                             l234 088C                               l226 06C6  
                             l154 258E                               l162 2822  
                             l170 1E4A                               l411 2242  
                             l403 21C8                               l251 0B48  
                             l243 099A                               l235 088A  
                             l227 06C8                               l219 0696  
                             l155 259A                               l412 2238  
                             l404 21DE                               l500 1AD0  
                             l260 0CF4                               l252 0ACC  
                             l236 08C4                               l228 06CA  
                             l156 259C                               l180 1ECE  
                             l413 224C                               l405 21E8  
                             l501 19C0                               l229 0D2C  
                             l261 0C24                               l253 0B56  
                             l237 09E6                               l245 09C8  
                             l149 262A                               l181 1ECA  
                             l414 224E                               l510 1AA6  
                             l502 1A06                               l270 0DFA  
                             l262 0D02                               l254 0B70  
                             l246 0A3C                               l182 1ED2  
                             l415 2268                               l511 1AB6  
                             l503 1A3C                               l271 0E8E  
                             l263 0D1C                               l255 0B58  
                             l247 0A54                               l239 091E  
                             l159 280E                               l183 1F0E  
                             l600 172E                               l416 2274  
                             l408 2210                               l512 1AA8  
                             l504 1A4A                               l272 0E06  
                             l264 0D04                               l256 0B86  
                             l248 0AA0                               l184 1F1A  
                             l176 1E6A                               l601 1746  
                             l417 228A                               l409 2222  
                             l513 1AC0                               l505 1A88  
                             l273 0EA4                               l265 0D2A  
                             l257 0BA4                               l249 0A90  
                             l185 1F4A                               l177 1E74  
                             l602 1768                               l418 2294  
                             l506 1A74                               l274 0EC6  
                             l266 0D6C                               l258 0BAA  
                             l178 1EBE                               l603 178A  
                             l507 1A76                               l275 0ED6  
                             l267 0D84                               l259 0BD2  
                             l179 1EC8                               l604 17C8  
                             l540 1F6A                               l508 1A86  
                             l620 18B8                               l268 0DD0  
                             l541 203C                               l701 23CC  
                             l509 1AC0                               l621 18E4  
                             l269 0DC0                               l550 1FFC  
                             l542 1F88                               l702 237A  
                             l630 194E                               l622 18F0  
                             l551 2008                               l543 1F7C  
                             l711 2450                               l703 236C  
                             l631 1966                               l623 192E  
                             l552 202E                               l544 1FAA  
                             l712 240A                               l704 2384  
                             l624 191A                               l545 1FC4  
                             l641 1B14                               l713 23FC  
                             l705 2386                               l625 191C  
                             l617 1836                               l546 1FAC  
                             l538 1F7A                               l642 1C12  
                             l730 251E                               l714 2414  
                             l706 23BC                               l634 22D0  
                             l626 192C                               l618 1976  
                             l810 24D6                               l547 1FE6  
                             l643 1B52                               l731 2548  
                             l715 2416                               l707 23CC  
                             l635 2306                               l395 2150  
                             l627 1966                               l619 1878  
                             l580 166E                               l548 1FF4  
                             l644 1B8A                               l820 269C  
                             l716 2440                               l708 23DC  
                             l652 2844                               l636 233C  
                             l396 2166                               l628 194C  
                             l804 2476                               l549 1FE8  
                             l645 1BA0                               l821 26B4  
                             l717 2450                               l661 1C5A  
                             l653 2850                               l397 21CA  
                             l629 195C                               l805 2470  
                             l590 16EA                               l582 1660  
                             l646 1BB6                               l822 26BC  
                             l718 2460                               l670 1CFE  
                             l662 1D46                               l398 218E  
                             l806 248A                               l591 16DE  
                             l583 1682                               l647 1BC0  
                             l671 1D16                               l663 1CDE  
                             l399 2184                               l807 248E  
                             l592 16F6                               l584 168C  
                             l576 1638                               l648 1BD6  
                             l728 24F4                               l672 1D34  
                             l664 1CCA                               l808 248C  
                             l585 16F8                               l593 1748  
                             l649 1BEC                               l729 24E6  
                             l665 1CCC                               l809 24D6  
                             l594 1748                               l586 16B4  
                             l578 162A                               l658 27BA  
                             l666 1CDC                               l595 1704  
                             l579 17EE                               l819 268A  
                             l667 1D18                               l499 199E  
                             l588 16DA                               l668 1CFC  
                             l597 172A                               l589 16DC  
                             l669 1D0C                               _LB1 007C51  
                             l598 172C                               l862 267A  
                             _LB2 007C52                               l599 173A  
                             l847 26FE                               _LB3 007C53  
                             l857 2740                      __CFG_CPB$OFF 000000  
                             _RB4 007C0C                               _RB5 007C0D  
                             _RB6 007C0E                               _RB7 007C0F  
                             _PR2 000FCB                      __CFG_CPD$OFF 000000  
          __end_of_lcd_putsTwoint 1E4E                      __CFG_BORV$20 000000  
                    ___awmod@sign 0007                               wreg 000FE8  
                   ___asftmul@f1p 0031                       _sprintf$344 0055  
                     _sprintf$935 0052                     ___asftsub@f1p 001D  
         ?_LcdInitialize_Settings 0001                      __CFG_LVP$OFF 000000  
                    __CFG_OSCS$ON 000000                      __CFG_WDT$OFF 000000  
                            l4001 2218                              l4011 224E  
                            l4003 2222                              l4101 2828  
                            l4021 2280                              l4013 225E  
                            l4005 222E                              l4111 2352  
                            l4103 2838                              l4023 228A  
                            l4015 2268                              l4007 2238  
                            l4121 2390                              l4113 2362  
                            l4025 2294                              l4017 226E  
                            l4009 2242                              l4201 2584  
                            l4123 23A8                              l4115 236C  
                            l4019 2276                              l4211 2136  
                            l4203 2586                              l4301 172E  
                            l4141 268A                              l4125 23B8  
                            l4117 237A                              l4109 2342  
                            l4221 2160                              l4213 213E  
                            l4205 2588                              l4311 1792  
                            l4303 173A                              l4143 2692  
                            l4127 23BC                              l4119 2386  
                            l4231 218E                              l4223 2166  
                            l4215 2146                              l4207 258A  
                            l1831 2750                              l4321 17EE  
                            l4313 179E                              l4305 1750  
                            l4145 269C                              l4129 23C6  
                            l4401 1CE8                              l4241 21BC  
                            l4233 219A                              l4225 216E  
                            l4217 2150                              l4209 212E  
                            l4161 25F4                              l1833 275E  
                            l4153 2856                              l4315 17A6  
                            l4307 1770                              l4331 1B42  
                            l4323 1AD6                              l4147 26A2  
                            l4139 2680                              l4411 1D22  
                            l4403 1CFA                              l4091 2306  
                            l4083 229A                              l4251 21E8  
                            l4243 21C2                              l4235 21A0  
                            l4227 217A                              l4219 2158  
                            l4171 2616                              l4163 2600  
                            l1835 2768                              l1827 2746  
                            l4155 2858                              l4317 17BE  
                            l4309 178A                              l4261 1638  
                            l4253 15B6                              l4341 1B66  
                            l4333 1B50                              l4325 1B04  
                            l4421 23FC                              l4413 1D34  
                            l4405 1CFE                              l4093 2312  
                            l4085 22A2                              l4237 21B0  
                            l4229 2184                              l4245 21CA  
                            l4181 2626                              l4173 2618  
                            l4165 260A                              l4501 1EFC  
                            l1829 2748                              l4157 2860  
                            l4319 17C8                              l4271 167E  
                            l4263 1642                              l4255 1602  
                            l4351 1B92                              l4343 1B68  
                            l4335 1B52                              l4327 1B12  
                            l4431 244A                              l4423 240A  
                            l4415 1D46                              l4407 1D0C  
                            l4095 2332                              l4087 22D0  
                            l4247 21D4                              l4239 21B8  
                            l4191 256A                              l4183 254E  
                            l4511 27F8                              l4175 2620  
                            l4167 2612                              l4503 1EFE  
                            l1871 27D0                              l1863 27C0  
                            l4159 286E                              l4281 16A8  
                            l4273 1682                              l4265 164C  
                            l4257 160C                              l4361 1BC8  
                            l4353 1BA0                              l4345 1B74  
                            l4337 1B58                              l4329 1B14  
                            l4441 2548                              l4433 24DC  
                            l4425 2416                              l4417 23E2  
                            l4409 1D18                              l4097 2336  
                            l4089 22D8                              l4249 21DE  
                            l4521 145A                              l4601 0696  
                            l4193 2572                              l4185 255A  
                            l4513 2808                              l4177 2622  
                            l4169 2614                              l4505 1F00  
                            l1881 27E2                              l1873 27D2  
                            l1865 27C4                              l4291 16EA  
                            l4283 16B4                              l4275 168A  
                            l4267 166E                              l4259 1616  
                            l4363 1BD6                              l4355 1BB0  
                            l4347 1B80                              l4339 1B64  
                            l4435 24E6                              l4427 242E  
                            l4419 23F2                              l4371 1C18  
                            l4099 233C                              l3811 1836  
                            l4531 1530                              l4523 1484  
                            l4611 06CC                              l4603 06A2  
                            l4195 2574                              l4187 255E  
                            l4515 280E                              l1891 28C2  
                            l4179 2624                              l4507 1F0E  
                            l4451 1E74                              l4443 1E50  
                            l1883 27E8                              l1875 27D4  
                            l1867 27CC                              l4285 16BE  
                            l4293 16F8                              l4277 168E  
                            l4269 1676                              l4365 1BE6  
                            l4357 1BB6                              l4349 1B8A  
                            l4437 24F4                              l4429 2440  
                            l4381 1C82                              l4373 1C46  
                            l3901 1A72                              l3821 1888  
                            l3813 1864                              l3805 17F4  
                            l4541 0EE4                              l4533 155A  
                            l4525 1486                              l4517 133A  
                            l4701 0A90                              l4621 0726  
                            l4613 06CE                              l4605 06AE  
                            l4197 2576                              l4189 2560  
                            l4509 27F6                              l4461 1E7E  
                            l4453 1E76                              l4445 1E5C  
                            l1885 27EA                              l1877 27D6  
                            l1869 27CE                              l4295 1704  
                            l4287 16CA                              l4279 169C  
                            l4367 1BEC                              l4359 1BC0  
                            l4439 251E                              l4391 1CB6  
                            l4383 1C8E                              l4375 1C58  
                            l3911 1AA4                              l3903 1A76  
                            l3831 18B8                              l3823 1894  
                            l3815 1876                              l3807 1822  
                            l4551 101C                              l4543 0EE6  
                            l4535 155E                              l4519 1344  
                            l4527 1488                              l4711 0ACC  
                            l4703 0A92                              l4631 0772  
                            l4623 072E                              l4615 06FE  
                            l4607 06B4                              l4199 2578  
                            l4471 1E96                              l4463 1E80  
                            l4455 1E78                              l4447 1E60  
                            l1887 27EC                              l1879 27DC  
                            l4297 170E                              l4289 16DE  
                            l4369 1C12                              l4393 1CC8  
                            l4385 1C9C                              l4377 1C5A  
                            l3913 1AA8                              l3905 1A80  
                            l3841 18F8                              l3833 18C2  
                            l3825 18A4                              l3817 1878  
                            l3809 1834                              l4553 102A  
                            l4545 0EF4                              l4561 110E  
                            l4537 15B0                              l4529 1492  
                            l4801 0ED6                              l4721 0B68  
                            l4713 0B42                              l4705 0AA0  
                            l4641 07F6                              l4633 0782  
                            l4625 0748                              l4617 070A  
                            l4609 06C2                              l4481 1EAC  
                            l4473 1E98                              l4465 1E84  
                            l4457 1E7A                              l4449 1E6A  
                            l1889 27EE                              l4299 171A  
                            l3931 1F5A                              l4395 1CCC  
                            l4387 1CA0                              l4379 1C80  
                            l3915 1AB6                              l3907 1A88  
                            l3843 1906                              l3851 192E  
                            l3835 18D6                              l3827 18A8  
                            l3819 187A                              l4571 1252  
                            l4563 111C                              l4555 10D2  
                            l4547 1018                              l4539 0EDC  
                            l4731 0BB6                              l4723 0B70  
                            l4707 0AB8                              l4715 0B48  
                            l4651 0858                              l4643 07FE  
                            l4635 07B8                              l4627 0764  
                            l4619 0712                              l3771 25A4  
                            l4811 1DAC                              l4803 1D4C  
                            l4491 1EBE                              l4483 1EAE  
                            l4475 1E9A                              l4467 1E90  
                            l4459 1E7C                              l4581 2790  
                            l3941 1FAC                              l3933 1F6A  
                            l4397 1CD6                              l4389 1CA8  
                            l3765 2336                              l3909 1A92  
                            l3861 197C                              l3853 1938  
                            l3845 1918                              l3837 18E2  
                            l3829 18AE                              l4573 12FA  
                            l4565 1240                              l4557 10D6  
                            l4549 101A                              l4741 0C24  
                            l4733 0BC0                              l4725 0B86  
                            l4717 0B58                              l4709 0AC4  
                            l4661 08C4                              l4653 0860  
                            l4645 0806                              l4637 07BE  
                            l4629 076A                              l3773 25AE  
                            l4821 1E2C                              l4813 1DC4  
                            l4805 1D5A                              l4493 1EE8  
                            l4485 1EB0                              l4477 1E9C  
                            l4469 1E94                              l4583 27BA  
                            l3951 2004                              l3943 1FAE  
                            l3935 1F78                              l4591 2740  
                            l4399 1CDE                              l3767 233A  
                            l3871 19BE                              l3863 198A  
                            l3855 194A                              l3847 191C  
                            l3839 18EC                              l4575 12FE  
                            l4567 1242                              l4559 110C  
                            l3791 2470                              l4751 0D10  
                            l4743 0C9A                              l4735 0BCC  
                            l4727 0B9A                              l4719 0B64  
                            l4671 0942                              l4663 08D8  
                            l4655 0884                              l4647 081C  
                            l4639 07DA                              l3775 25B8  
                            l4823 1E3E                              l4815 1DE0  
                            l4807 1D6C                              l4495 1EF4  
                            l4487 1EB2                              l4479 1EA8  
                            l4831 205A                              l3961 203C  
                            l3953 2008                              l3945 1FC4  
                            l3937 1F7C                              l3929 1F50  
                            l4585 26C2                              l3881 19F4  
                            l3873 19C0                              l3865 199C  
                            l3857 194E                              l3849 1926  
                            l4577 1334                              l4569 1244  
                            l3793 2476                              l4761 0D4E  
                            l4753 0D14                              l4745 0C9E  
                            l4737 0BD2                              l4729 0BAA  
                            l4681 09C8                              l4673 094C  
                            l4665 08E8                              l4649 0834  
                            l4657 088E                              l3777 25D0  
                            l3769 25A2                              l4817 1DF8  
                            l4809 1D8C                              l4497 1EF8  
                            l4489 1EB4                              l4593 2880  
                            l4841 2068                              l4833 2060  
                            l4825 2042                              l4579 2784  
                            l4595 263E                              l3955 2020  
                            l3947 1FE8                              l3939 1F88  
                            l4587 26FE                              l3891 1A38  
                            l3883 19F8                              l3875 19C2  
                            l3867 199E                              l3859 195C  
                            l3795 248E                              l4771 0D82  
                            l4763 0D56                              l4755 0D1C  
                            l4747 0CF4                              l4739 0BE6  
                            l4691 0A3C                              l4683 09D8  
                            l4675 0956                              l4667 0908  
                            l4659 08A2                              l3779 25E0  
                            l4819 1E10                              l4499 1EFA  
                            l4851 20B8                              l4843 207C  
                            l4835 2062                              l4827 2052  
                            l4597 267A                              l3957 202A  
                            l3949 1FF4                              l4589 2704  
                            l3893 1A3C                              l3885 19FE  
                            l3877 19D2                              l3869 19AC  
                            l3789 2466                              l4781 0DD0  
                            l4773 0D84                              l4765 0D5A  
                            l4749 0D04                              l4693 0A44  
                            l4677 096C                              l4685 09E6  
                            l4669 091E                              l4757 0D2C  
                            l4861 211A                              l4853 20DE  
                            l4845 2090                              l4837 2064  
                            l4829 2056                              l3959 202E  
                            l3991 21EE                              l3895 1A46  
                            l3887 1A10                              l3879 19E4  
                            l4791 0E7C                              l4783 0DE8  
                            l4775 0DBE                              l4767 0D6C  
                            l4759 0D46                              l4695 0A52  
                            l4687 0A06                              l4679 099A  
                            l4599 068A                              l4855 20F2  
                            l4847 209C                              l4839 2066  
                            l3993 21F6                              l3897 1A52  
                            l3889 1A28                              l4793 0E88  
                            l4785 0DF4                              l4777 0DC0  
                            l4769 0D74                              l4697 0A54  
                            l4689 0A32                              l4857 20FE  
                            l4849 20A8                              l3995 21FE  
                            l3899 1A60                              l4795 0E8E  
                            l4787 0DFA                              l4779 0DC2  
                            l4699 0A8E                              l4859 210A  
                            l3997 2206                              l4789 0E06  
                            l4797 0EA6                              l3999 2210  
                            l4799 0EC8                              STR_1 067E  
                            STR_2 067E                              STR_3 067E  
                            STR_4 0676                              STR_5 0684  
                            STR_6 067A                              STR_7 0681  
                            u3100 26B4                              u3020 22A2  
                            u3101 26B2                              u3021 22A0  
                            u3030 22D8                              u3110 286C  
                            u3031 22D6                              u3111 286A  
                            u3200 15D4                              u3040 2332  
                            u3120 260A                              _LATD 000F8C  
                            u3041 2330                              u4001 1D64  
                            u3121 2608                              u3210 15FA  
                            u3050 2838                              u3130 256A  
                            u4010 2074                              u3051 2836  
                            u3131 2568                              u4011 2072  
                            u3300 16B2                              u3220 160C  
                            u3060 2362                              u3140 213E  
                            u4020 20B8                              u3301 16B0  
                            u3221 160A                              u3205 15CC  
                            u3061 2360                              u3141 213C  
                            u4021 20B6                              u3310 16CA  
                            u3230 1616                              u3070 2382  
                            u3150 2158                              u4030 20D6  
                            u3311 16C8                              u3231 1614  
                            u3215 15F2                              u3071 2380  
                            u3151 2156                              u4031 20D4  
                            u3400 17A6                              u3320 16D8  
                            u3240 162A                              u3080 23A8  
                            u3160 217A                              u2600 2488  
                            u4040 211A                              u3401 17A4  
                            u3321 16D6                              u3241 1628  
                            u3081 23A6                              u3161 2178  
                            u2601 2486                              u4041 2118  
                            u3330 16F4                              u3250 1642  
                            u3410 1AF4                              u3090 2692  
                            u3170 2196                              u2610 24C8  
                            u3331 16F2                              u3251 1640  
                            u3091 2690                              u3171 2194  
                            u3340 1702                              u3260 164C  
                            u3420 1B04                              u3500 1CA8  
                            u3180 21B0                              u2700 1938  
                            u2620 24D4                              u3341 1700  
                            u3261 164A                              u3421 1B02  
                            u3501 1CA6                              u3181 21AE  
                            u2701 1936                              u2621 24D2  
                            u3350 171A                              u3270 1660  
                            u3430 1B32                              u3510 1CB6  
                            u3190 21D4                              u2710 1964  
                            u2630 1812                              u3351 1718  
                            u3271 165E                              u3415 1AEC  
                            u3511 1CB4                              u3191 21D2  
                            u2711 1962                              u3360 1728  
                            u3280 167E                              u2800 1F5A  
                            u3440 1B42                              u3520 1CE8  
                            u2720 198A                              u2640 1822  
                            u3600 1EE8                              u3361 1726  
                            u3281 167C                              u2801 1F58  
                            u3441 1B40                              u3521 1CE6  
                            u2721 1988                              u2641 1820  
                            u2617 24BE                              u3601 1EE6  
                            u3370 1744                              u3290 168A  
                            u2810 1F68                              u3450 1B92  
                            u3530 1D14                              u2730 19AC  
                            u2650 1854                              u3610 2820  
                            u3371 1742                              u3291 1688  
                            u2811 1F66                              u3451 1B90  
                            u3435 1B2A                              u3531 1D12  
                            u2731 19AA                              u2635 180A  
                            u3611 281E                              u3380 1750  
                            u2820 1FA8                              u3460 1BC8  
                            u3540 1D22                              u2900 21FE  
                            u2740 1A28                              u2660 1864  
                            u3620 1344                              u3700 070A  
                            u2580 25DC                              u3381 174E  
                            u2821 1FA6                              u3461 1BC6  
                            u3541 1D20                              u2901 21FC  
                            u2741 1A26                              u2661 1862  
                            u3621 1342                              u3701 0708  
                            u2581 25DA                              u3390 1770  
                            u2830 1FE4                              u3550 23F2  
                            u3470 1C36                              u2910 2218  
                            u2750 1A52                              u2670 18D6  
                            u3630 1492                              u3710 0748  
                            u2590 25EC                              u3391 176E  
                            u2831 1FE2                              u3551 23F0  
                            u2911 2216                              u2751 1A50  
                            u2671 18D4                              u2655 184C  
                            u3631 1490                              u3711 0746  
                            u2591 25EA                              u2840 1FFC  
                            u3560 2412                              u3480 1C46  
                            u2920 222E                              u2760 1A60  
                            u2680 18F8                              u3640 0EE4  
                            u3800 0908                              u3720 0782  
                            u2841 1FFA                              u3561 2410  
                            u3481 1C44                              u2921 222C  
                            u2761 1A5E                              u2681 18F6  
                            u3641 0EE2                              u3801 0906  
                            u3721 0780                              u2850 2004  
                            u3570 242E                              u3490 1C78  
                            u2930 224A                              u2770 1A92  
                            u2690 1906                              u3650 0EF4  
                            u3810 091C                              u3730 07A8  
                            u2851 2002                              u3571 242C  
                            u3475 1C2E                              u2931 2248  
                            u2771 1A90                              u2691 1904  
                            u3651 0EF2                              u3811 091A  
                            u3715 0740                              u2860 202A  
                            u3580 251C                              u2940 225E  
                            u2780 1ABE                              u3660 102A  
                            u3900 0BC0                              u3820 0942  
                            u3740 07FE                              u2861 2028  
                            u3581 251A                              u2941 225C  
                            u2781 1ABC                              u3661 1028  
                            u3901 0BBE                              u3821 0940  
                            u3741 07FC                              u2950 2280  
                            u3670 111C                              u3910 0D00  
                            u3830 0A50                              u3750 0858  
                            u3590 1E5C                              u3495 1C70  
                            u2951 227E                              u3671 111A  
                            u3911 0CFE                              u3831 0A4E  
                            u3751 0856                              u3735 079E  
                            u3591 1E5A                              u3680 1252  
                            u3920 0D28                              u3840 0A8C  
                            u3760 0884                              u3681 1250  
                            u3921 0D26                              u3841 0A8A  
                            u3761 0882                              u3930 0D56  
                            u3850 0A9E                              u3770 08A2  
                            u3690 06A2                              u3931 0D54  
                            u3851 0A9C                              u3771 08A0  
                            u3691 06A0                              u3940 0D80  
                            u3860 0AB8                              u3780 08D8  
                            u3941 0D7E                              u3861 0AB6  
                            u3781 08D6                              u3950 0DBC  
                            u3870 0B54                              u3790 08E8  
                            u3951 0DBA                              u3871 0B52  
                            u3791 08E6                              u3960 0DCE  
                            u3880 0B84                              u3961 0DCC  
                            u3881 0B82                              u3970 0DE8  
                            u3890 0B9A                              u3971 0DE6  
                            u3891 0B98                              u3980 0EA2  
                            u3981 0EA0                              u3990 0EC4  
                            u3991 0EC0                              _TMR2 000FCC  
                    __CFG_STVR$ON 000000                              _main 2040  
                    ___ftpack@arg 0001                      ___ftpack@exp 0004  
                            fsr0h 000FEA                              indf0 000FEF  
                            fsr0l 000FE9                              fsr2h 000FDA  
                            indf2 000FDF                              fsr2l 000FD9  
                    lcd_init@mode 0007            ??_MotorDriver_Settings 0001  
                            prodl 000FF3                              start 0000  
                 __end_of_DelayMs 25F2                      ___ftmul@cntr 002F  
                    ___ftmul@sign 0030                      ___fttol@exp1 001F  
                    ___fttol@lval 001B                             ?_main 0001  
                           _CCP1X 007DED                             _CCP1Y 007DEC  
                           _CCP2X 007DD5                             _CCP2Y 007DD4  
                 __end_of___awdiv 21EC                   __end_of___ftadd 17F2  
                 __end_of___awmod 2298                   __end_of___ftneg 2854  
                 __end_of___lldiv 23E0                   __end_of___ftmul 1C16  
                 ___awdiv@divisor 000A                   __end_of___llmod 2464  
                 __end_of___ftsub 27BE                   __end_of___fttol 1D4A  
                           _T2CON 000FCA                    __CFG_DEBUG$OFF 000000  
                 ___awdiv@counter 000D                   ?_lcd_putsTwoint 006D  
                           _TRISD 000F95                     __CFG_PWRT$OFF 000000  
                    ___lltoft@exp 0011    __end_of_LcdInitialize_Settings 28A8  
                 __end_of_lcd_cmd 263C                             _scale 0EDA  
                   lcd_init@_dcnt 0009                     ___ftpack@sign 0005  
      __end_of_WaitinMicroseconds 2782                     main@iLeftVolt 0072  
                  __pbitbssCOMRAM 03B0                             tablat 000FF5  
                           status 000FD8                   __end_of_sprintf 0EDA  
                    __end_of_main 212C       lcd_putsTwoint@crgFirstValue 008F  
      __end_of_WaitinMilliseconds 287E               lcd_putsTwoint@F3371 009B  
__size_of_Analog2Digital_Settings 0016                            ??_main 0071  
                   ___fttol@sign1 001A                     __activetblptr 000002  
            __size_of__tdiv_to_l_ 0188                   __CFG_CCP2MUX$ON 000000  
                ___llmod@dividend 000F                            ?_scale 0031  
                          _ADRESH 000FC4                            _CCPR1L 000FBE  
                          _CCPR2L 000FBB                  ___awdiv@dividend 0008  
                __end_of___ftpack 2040                  __end_of___lltoft 254C  
                       ??_DelayMs 0002                    __CFG_WDTPS$128 000000  
                          _TRISA0 007C90                            _TRISA1 007C91  
                          _TRISB1 007C99                            _TRISB2 007C9A  
                          _TRISC1 007CA1                            _TRISB3 007C9B  
                          _TRISC2 007CA2                            _TRISB4 007C9C  
                          _TRISB5 007C9D                            _TRISB6 007C9E  
                          _TRISB7 007C9F                  __end_of_lcd_data 25A0  
                __end_of_lcd_init 1F4E                  __end_of_lcd_puts 2826  
                          ___ftge 2298                            ___wmul 267E  
                       ??___awdiv 000C                         ??___ftadd 000F  
                       ??___awmod 0005                         ??___ftneg 0004  
                       ??___lldiv 0009                         ??___ftmul 0026  
                       ??___llmod 0017                         ??___ftsub 001D  
                       ??___fttol 0015                            _fround 1338  
                          clear_0 28AE                  ___awdiv@quotient 000F  
                 ___awmod@divisor 0003                   ___awmod@counter 0006  
                       ??_lcd_cmd 0006                            _strcat 2464  
           ___ftmul@f3_as_product 002C                      __mediumconst 0000  
                          tblptrh 000FF7                            tblptrl 000FF6  
                          tblptru 000FF8                         ??_sprintf 004C  
              __size_of___asftadd 0042                __size_of___asftmul 0042  
              __size_of___asftsub 0042                        __accesstop 0080  
                  main@iRightVolt 0074                        ___ftadd@f1 0009  
         WaitinMicroseconds@_dcnt 0004                        ___ftadd@f2 000C  
                      ___ftge@ff1 0001                        ___ftge@ff2 0004  
         WaitinMicroseconds@delay 0001                        ___ftneg@f1 0001  
                      ___ftmul@f1 0020                        ___ftmul@f2 0023  
                      ___ftsub@f1 0017                        ___ftsub@f2 001A  
                      ___fttol@f1 0011                    __pcstackCOMRAM 0001  
                      ___lltoft@c 0009                     __end_of_scale 1338  
                      __div_to_l_ 197A                   __div_to_l_@exp1 000D  
                 __div_to_l_@cntr 000C                      sprintf@integ 005D  
                         ??_scale 0034                   __div_to_l_@quot 0008  
                      __pbssBANK0 009B         lcd_putsTwoint@iFirstValue 006D  
                   __div_to_l_@f1 0001                     __div_to_l_@f2 0004  
                         ?___ftge 0001                           ?___wmul 0001  
                         _CCP1CON 000FBD                           _CCP2CON 000FBA  
                ??_lcd_putsTwoint 0071           _Analog2Digital_Settings 28C0  
               __end_of___asftadd 2702                           ?_fround 0031  
               __end_of___asftmul 2744                 __end_of___asftsub 267E  
      lcd_putsTwoint@iSecondValue 006F                         ?___ftpack 0001  
                       ?___lltoft 0009                           ?_strcat 0001  
          lcd_putsTwoint@crgValue 0080                         ?_lcd_data 0005  
                       ?_lcd_init 0007                         ?_lcd_puts 0007  
                         _DelayMs 25A0                           __Hparam 0000  
                         __Lparam 0000     __size_of_MotorDriver_Settings 0036  
              _WaitinMicroseconds 2744                   __size_of___ftge 00A8  
                         ___awdiv 212C                           ___ftadd 15B4  
                         ___awmod 21EC                           ___ftneg 2826  
                         ___lldiv 2340                   __size_of___wmul 0042  
                         ___ftmul 1AD4                           ___llmod 23E0  
                         ___ftsub 2782                           ___fttol 1C16  
                      _fround$932 003D                        _fround$933 003A  
                    __psmallconst 0600                           __pcinit 28A8  
                      ??___ftpack 0006                   __size_of_fround 027C  
                         __ramtop 0600               ?_WaitinMicroseconds 0001  
                      ??___lltoft 000D                           __ptext0 2040  
                         __ptext1 2854                           __ptext2 27BE  
                         __ptext3 287E                           __ptext4 2744  
                         __ptext5 1E4E                           __ptext6 25F2  
                         __ptext7 28C0                           __ptext8 1D4A  
                         __ptext9 27F4                           _lcd_cmd 25F2  
                 __size_of_strcat 0076                       ?__div_to_l_ 0001  
                         _dpowers 0600                           _fourbit 03B0  
                ___awmod@dividend 0001                        ??_lcd_data 0006  
              _WaitinMilliseconds 2854                           _sprintf 0688  
                      ??_lcd_init 0008                        ??_lcd_puts 0009  
            end_of_initialization 28B6              ??_WaitinMicroseconds 0003  
                   __Lmediumconst 0000               ?_WaitinMilliseconds 0005  
                 ___lldiv@divisor 0005                   ___lldiv@counter 000E  
       ??_Analog2Digital_Settings 0001                           postdec2 000FDD  
                         postinc0 000FEE                           postinc1 000FE6  
                         postinc2 000FDE                    __tdiv_to_l_@f1 0001  
                  __tdiv_to_l_@f2 0004                     ??__tdiv_to_l_ 0007  
            ??_WaitinMilliseconds 0007               __size_of__div_to_l_ 015A  
                     ___ftmul@exp 002B                    __end_of___ftge 2340  
                  __end_of___wmul 26C0          ??_LcdInitialize_Settings 000B  
                  __end_of_fround 15B4                      DelayMs@_dcnt 0004  
                  __end_of_strcat 24DA               start_initialization 28A8  
             __end_of__tdiv_to_l_ 197A                lcd_init@init_value 000A  
                 ___llmod@divisor 0013                   ___llmod@counter 0018  
                        ??___ftge 0007                          ??___wmul 0005  
                        ??_fround 0034                          ??_strcat 0005  
                      fround@prec 0031                 __size_of___ftpack 00F2  
                       ___asftadd 26C0                         ___asftmul 2702  
                       ___asftsub 263C                 __size_of___lltoft 0072  
                   __pcstackBANK0 0080                          ?_DelayMs 0001  
               __size_of_lcd_data 0054                 __size_of_lcd_init 0100  
                     sprintf@_val 0062                       sprintf@flag 005B  
               __size_of_lcd_puts 0032                       sprintf@fval 0069  
                     sprintf@prec 0060                          ?___awdiv 0008  
                        ?___ftadd 0009                          ?___awmod 0001  
                        ?___ftneg 0001                          ?___lldiv 0001  
                        ?___ftmul 0020                          ?___llmod 000F  
                        ?___ftsub 0017                         __npowers_ 0628  
                        ?___fttol 0011                       __tdiv_to_l_ 17F2  
 __size_of_LcdInitialize_Settings 002A                          ?_lcd_cmd 0005  
                    ??__div_to_l_ 0007                       __smallconst 0600  
                      ?___asftadd 0040           WaitinMilliseconds@delay 0005  
                      ?___asftmul 0031                        ?___asftsub 001D  
    __end_of_MotorDriver_Settings 27F4                         _scale$934 003A  
                        ?_sprintf 0045                    __size_of_scale 045E  
                  ___wmul@product 0005                          DelayMs@i 0003  
              __end_of__div_to_l_ 1AD4           lcd_putsTwoint@cptrValue 0099  
                       lcd_data@c 0005                        _ADCON0bits 000FC2  
                      _ADCON1bits 000FC1                 ___wmul@multiplier 0001  
                       lcd_puts@s 0007           __size_of_lcd_putsTwoint 0104  
          _LcdInitialize_Settings 287E       __size_of_WaitinMicroseconds 003E  
                __size_of_DelayMs 0052                          __Hrparam 0000  
                        __Lrparam 0000                  __size_of___awdiv 00C0  
                __size_of___ftadd 023E                  __size_of___awmod 00AC  
                __size_of___ftneg 002E                  __size_of___lldiv 00A0  
                __size_of___ftmul 0142                  __size_of___llmod 0084  
                __size_of___ftsub 003C                  __size_of___fttol 0134  
                        ___ftpack 1F4E                          ___lltoft 24DA  
     __size_of_WaitinMilliseconds 002A                  __size_of_lcd_cmd 004A  
                     ??___asftadd 0045                        sprintf@exp 0067  
                     ??___asftmul 0036                       ??___asftsub 0022  
                      strcat@from 0003                          __ptext10 254C  
                        __ptext11 25A0                          __ptext20 2298  
                        __ptext12 0688                          __ptext21 2826  
                        __ptext13 2464                          __ptext30 1F4E  
                        __ptext22 1C16                          __ptext14 1338  
                        __ptext31 263C                          __ptext23 2340  
                        __ptext15 0EDA                          __ptext32 2782  
                        __ptext24 23E0                          __ptext16 17F2  
                        __ptext33 15B4                          __ptext25 24DA  
                        __ptext17 197A                          __ptext26 267E  
                        __ptext18 212C                          __ptext27 26C0  
                        __ptext19 21EC                          __ptext28 2702  
                        __ptext29 1AD4                          __powers_ 064F  
                        _lcd_data 254C                          _lcd_init 1E4E  
                        _lcd_puts 27F4                  __size_of_sprintf 0852  
                   __size_of_main 00EC          ?_Analog2Digital_Settings 0001  
            _MotorDriver_Settings 27BE                          lcd_cmd@c 0005  
                      DelayMs@cnt 0001                          scale@scl 0031  
                       sprintf@ap 0059                  __tdiv_to_l_@exp1 0011  
                       sprintf@sp 0045                  __tdiv_to_l_@cntr 0010  
                __tdiv_to_l_@quot 000C                  ___lldiv@dividend 0001  
           ?_MotorDriver_Settings 0001                      ?__tdiv_to_l_ 0001  
                        sprintf@c 006C                          sprintf@f 0047  
                        strcat@cp 0007                          strcat@to 0001  
                ___lldiv@quotient 000A                    _lcd_putsTwoint 1D4A  
 __end_of_Analog2Digital_Settings 28D6      lcd_putsTwoint@crgSecondValue 0094  
